
8_UART_INT.elf:     file format elf32-littlearm

Sections:
Idx Name          Size      VMA       LMA       File off  Algn
  0 .isr_vector   0000010c  08000000  08000000  00010000  2**0
                  CONTENTS, ALLOC, LOAD, READONLY, DATA
  1 .text         00001bf0  0800010c  0800010c  0001010c  2**2
                  CONTENTS, ALLOC, LOAD, READONLY, CODE
  2 .rodata       00000028  08001cfc  08001cfc  00011cfc  2**2
                  CONTENTS, ALLOC, LOAD, READONLY, DATA
  3 .ARM.extab    00000000  08001d24  08001d24  00020010  2**0
                  CONTENTS
  4 .ARM          00000000  08001d24  08001d24  00020010  2**0
                  CONTENTS
  5 .preinit_array 00000000  08001d24  08001d24  00020010  2**0
                  CONTENTS, ALLOC, LOAD, DATA
  6 .init_array   00000004  08001d24  08001d24  00011d24  2**2
                  CONTENTS, ALLOC, LOAD, DATA
  7 .fini_array   00000004  08001d28  08001d28  00011d28  2**2
                  CONTENTS, ALLOC, LOAD, DATA
  8 .data         00000010  20000000  08001d2c  00020000  2**2
                  CONTENTS, ALLOC, LOAD, DATA
  9 .bss          000000a4  20000010  08001d3c  00020010  2**2
                  ALLOC
 10 ._user_heap_stack 00000604  200000b4  08001d3c  000200b4  2**0
                  ALLOC
 11 .ARM.attributes 00000029  00000000  00000000  00020010  2**0
                  CONTENTS, READONLY
 12 .debug_info   00005b41  00000000  00000000  00020039  2**0
                  CONTENTS, READONLY, DEBUGGING, OCTETS
 13 .debug_abbrev 0000149e  00000000  00000000  00025b7a  2**0
                  CONTENTS, READONLY, DEBUGGING, OCTETS
 14 .debug_aranges 00000658  00000000  00000000  00027018  2**3
                  CONTENTS, READONLY, DEBUGGING, OCTETS
 15 .debug_ranges 000005b0  00000000  00000000  00027670  2**3
                  CONTENTS, READONLY, DEBUGGING, OCTETS
 16 .debug_macro  00015e8a  00000000  00000000  00027c20  2**0
                  CONTENTS, READONLY, DEBUGGING, OCTETS
 17 .debug_line   00006ba1  00000000  00000000  0003daaa  2**0
                  CONTENTS, READONLY, DEBUGGING, OCTETS
 18 .debug_str    0007dc69  00000000  00000000  0004464b  2**0
                  CONTENTS, READONLY, DEBUGGING, OCTETS
 19 .comment      00000053  00000000  00000000  000c22b4  2**0
                  CONTENTS, READONLY
 20 .debug_frame  0000184c  00000000  00000000  000c2308  2**2
                  CONTENTS, READONLY, DEBUGGING, OCTETS

Disassembly of section .text:

0800010c <__do_global_dtors_aux>:
 800010c:	b510      	push	{r4, lr}
 800010e:	4c05      	ldr	r4, [pc, #20]	; (8000124 <__do_global_dtors_aux+0x18>)
 8000110:	7823      	ldrb	r3, [r4, #0]
 8000112:	b933      	cbnz	r3, 8000122 <__do_global_dtors_aux+0x16>
 8000114:	4b04      	ldr	r3, [pc, #16]	; (8000128 <__do_global_dtors_aux+0x1c>)
 8000116:	b113      	cbz	r3, 800011e <__do_global_dtors_aux+0x12>
 8000118:	4804      	ldr	r0, [pc, #16]	; (800012c <__do_global_dtors_aux+0x20>)
 800011a:	f3af 8000 	nop.w
 800011e:	2301      	movs	r3, #1
 8000120:	7023      	strb	r3, [r4, #0]
 8000122:	bd10      	pop	{r4, pc}
 8000124:	20000010 	.word	0x20000010
 8000128:	00000000 	.word	0x00000000
 800012c:	08001ce4 	.word	0x08001ce4

08000130 <frame_dummy>:
 8000130:	b508      	push	{r3, lr}
 8000132:	4b03      	ldr	r3, [pc, #12]	; (8000140 <frame_dummy+0x10>)
 8000134:	b11b      	cbz	r3, 800013e <frame_dummy+0xe>
 8000136:	4903      	ldr	r1, [pc, #12]	; (8000144 <frame_dummy+0x14>)
 8000138:	4803      	ldr	r0, [pc, #12]	; (8000148 <frame_dummy+0x18>)
 800013a:	f3af 8000 	nop.w
 800013e:	bd08      	pop	{r3, pc}
 8000140:	00000000 	.word	0x00000000
 8000144:	20000014 	.word	0x20000014
 8000148:	08001ce4 	.word	0x08001ce4

0800014c <HAL_UART_RxCpltCallback>:
 800014c:	b580      	push	{r7, lr}
 800014e:	b082      	sub	sp, #8
 8000150:	af00      	add	r7, sp, #0
 8000152:	6078      	str	r0, [r7, #4]
 8000154:	687b      	ldr	r3, [r7, #4]
 8000156:	681a      	ldr	r2, [r3, #0]
 8000158:	4b0e      	ldr	r3, [pc, #56]	; (8000194 <HAL_UART_RxCpltCallback+0x48>)
 800015a:	681b      	ldr	r3, [r3, #0]
 800015c:	429a      	cmp	r2, r3
 800015e:	d104      	bne.n	800016a <HAL_UART_RxCpltCallback+0x1e>
 8000160:	2201      	movs	r2, #1
 8000162:	490d      	ldr	r1, [pc, #52]	; (8000198 <HAL_UART_RxCpltCallback+0x4c>)
 8000164:	6878      	ldr	r0, [r7, #4]
 8000166:	f001 fa84 	bl	8001672 <HAL_UART_Receive_IT>
 800016a:	687b      	ldr	r3, [r7, #4]
 800016c:	681a      	ldr	r2, [r3, #0]
 800016e:	4b0b      	ldr	r3, [pc, #44]	; (800019c <HAL_UART_RxCpltCallback+0x50>)
 8000170:	681b      	ldr	r3, [r3, #0]
 8000172:	429a      	cmp	r2, r3
 8000174:	d109      	bne.n	800018a <HAL_UART_RxCpltCallback+0x3e>
 8000176:	2201      	movs	r2, #1
 8000178:	4909      	ldr	r1, [pc, #36]	; (80001a0 <HAL_UART_RxCpltCallback+0x54>)
 800017a:	4808      	ldr	r0, [pc, #32]	; (800019c <HAL_UART_RxCpltCallback+0x50>)
 800017c:	f001 fa79 	bl	8001672 <HAL_UART_Receive_IT>
 8000180:	2201      	movs	r2, #1
 8000182:	4907      	ldr	r1, [pc, #28]	; (80001a0 <HAL_UART_RxCpltCallback+0x54>)
 8000184:	4805      	ldr	r0, [pc, #20]	; (800019c <HAL_UART_RxCpltCallback+0x50>)
 8000186:	f001 fa30 	bl	80015ea <HAL_UART_Transmit_IT>
 800018a:	bf00      	nop
 800018c:	3708      	adds	r7, #8
 800018e:	46bd      	mov	sp, r7
 8000190:	bd80      	pop	{r7, pc}
 8000192:	bf00      	nop
 8000194:	20000070 	.word	0x20000070
 8000198:	2000006d 	.word	0x2000006d
 800019c:	2000002c 	.word	0x2000002c
 80001a0:	2000006c 	.word	0x2000006c

080001a4 <main>:
 80001a4:	b580      	push	{r7, lr}
 80001a6:	af00      	add	r7, sp, #0
 80001a8:	f000 fa2a 	bl	8000600 <HAL_Init>
 80001ac:	f000 f82a 	bl	8000204 <SystemClock_Config>
 80001b0:	f000 f8c2 	bl	8000338 <MX_GPIO_Init>
 80001b4:	f000 f86c 	bl	8000290 <MX_USART2_UART_Init>
 80001b8:	f000 f894 	bl	80002e4 <MX_USART3_UART_Init>
 80001bc:	2201      	movs	r2, #1
 80001be:	490c      	ldr	r1, [pc, #48]	; (80001f0 <main+0x4c>)
 80001c0:	480c      	ldr	r0, [pc, #48]	; (80001f4 <main+0x50>)
 80001c2:	f001 fa56 	bl	8001672 <HAL_UART_Receive_IT>
 80001c6:	2201      	movs	r2, #1
 80001c8:	490b      	ldr	r1, [pc, #44]	; (80001f8 <main+0x54>)
 80001ca:	480c      	ldr	r0, [pc, #48]	; (80001fc <main+0x58>)
 80001cc:	f001 fa51 	bl	8001672 <HAL_UART_Receive_IT>
 80001d0:	2201      	movs	r2, #1
 80001d2:	490b      	ldr	r1, [pc, #44]	; (8000200 <main+0x5c>)
 80001d4:	4807      	ldr	r0, [pc, #28]	; (80001f4 <main+0x50>)
 80001d6:	f001 fa08 	bl	80015ea <HAL_UART_Transmit_IT>
 80001da:	4b09      	ldr	r3, [pc, #36]	; (8000200 <main+0x5c>)
 80001dc:	781b      	ldrb	r3, [r3, #0]
 80001de:	3301      	adds	r3, #1
 80001e0:	b2da      	uxtb	r2, r3
 80001e2:	4b07      	ldr	r3, [pc, #28]	; (8000200 <main+0x5c>)
 80001e4:	701a      	strb	r2, [r3, #0]
 80001e6:	f44f 707a 	mov.w	r0, #1000	; 0x3e8
 80001ea:	f000 fa6b 	bl	80006c4 <HAL_Delay>
 80001ee:	e7ef      	b.n	80001d0 <main+0x2c>
 80001f0:	2000006d 	.word	0x2000006d
 80001f4:	20000070 	.word	0x20000070
 80001f8:	2000006c 	.word	0x2000006c
 80001fc:	2000002c 	.word	0x2000002c
 8000200:	20000000 	.word	0x20000000

08000204 <SystemClock_Config>:
 8000204:	b580      	push	{r7, lr}
 8000206:	b090      	sub	sp, #64	; 0x40
 8000208:	af00      	add	r7, sp, #0
 800020a:	f107 0318 	add.w	r3, r7, #24
 800020e:	2228      	movs	r2, #40	; 0x28
 8000210:	2100      	movs	r1, #0
 8000212:	4618      	mov	r0, r3
 8000214:	f001 fd5e 	bl	8001cd4 <memset>
 8000218:	1d3b      	adds	r3, r7, #4
 800021a:	2200      	movs	r2, #0
 800021c:	601a      	str	r2, [r3, #0]
 800021e:	605a      	str	r2, [r3, #4]
 8000220:	609a      	str	r2, [r3, #8]
 8000222:	60da      	str	r2, [r3, #12]
 8000224:	611a      	str	r2, [r3, #16]
 8000226:	2301      	movs	r3, #1
 8000228:	61bb      	str	r3, [r7, #24]
 800022a:	f44f 3380 	mov.w	r3, #65536	; 0x10000
 800022e:	61fb      	str	r3, [r7, #28]
 8000230:	2300      	movs	r3, #0
 8000232:	623b      	str	r3, [r7, #32]
 8000234:	2301      	movs	r3, #1
 8000236:	62bb      	str	r3, [r7, #40]	; 0x28
 8000238:	2302      	movs	r3, #2
 800023a:	637b      	str	r3, [r7, #52]	; 0x34
 800023c:	f44f 3380 	mov.w	r3, #65536	; 0x10000
 8000240:	63bb      	str	r3, [r7, #56]	; 0x38
 8000242:	f44f 13e0 	mov.w	r3, #1835008	; 0x1c0000
 8000246:	63fb      	str	r3, [r7, #60]	; 0x3c
 8000248:	f107 0318 	add.w	r3, r7, #24
 800024c:	4618      	mov	r0, r3
 800024e:	f000 fd65 	bl	8000d1c <HAL_RCC_OscConfig>
 8000252:	4603      	mov	r3, r0
 8000254:	2b00      	cmp	r3, #0
 8000256:	d001      	beq.n	800025c <SystemClock_Config+0x58>
 8000258:	f000 f89c 	bl	8000394 <Error_Handler>
 800025c:	230f      	movs	r3, #15
 800025e:	607b      	str	r3, [r7, #4]
 8000260:	2302      	movs	r3, #2
 8000262:	60bb      	str	r3, [r7, #8]
 8000264:	2300      	movs	r3, #0
 8000266:	60fb      	str	r3, [r7, #12]
 8000268:	f44f 6380 	mov.w	r3, #1024	; 0x400
 800026c:	613b      	str	r3, [r7, #16]
 800026e:	2300      	movs	r3, #0
 8000270:	617b      	str	r3, [r7, #20]
 8000272:	1d3b      	adds	r3, r7, #4
 8000274:	2102      	movs	r1, #2
 8000276:	4618      	mov	r0, r3
 8000278:	f000 ffd0 	bl	800121c <HAL_RCC_ClockConfig>
 800027c:	4603      	mov	r3, r0
 800027e:	2b00      	cmp	r3, #0
 8000280:	d001      	beq.n	8000286 <SystemClock_Config+0x82>
 8000282:	f000 f887 	bl	8000394 <Error_Handler>
 8000286:	bf00      	nop
 8000288:	3740      	adds	r7, #64	; 0x40
 800028a:	46bd      	mov	sp, r7
 800028c:	bd80      	pop	{r7, pc}
	...

08000290 <MX_USART2_UART_Init>:
 8000290:	b580      	push	{r7, lr}
 8000292:	af00      	add	r7, sp, #0
 8000294:	4b11      	ldr	r3, [pc, #68]	; (80002dc <MX_USART2_UART_Init+0x4c>)
 8000296:	4a12      	ldr	r2, [pc, #72]	; (80002e0 <MX_USART2_UART_Init+0x50>)
 8000298:	601a      	str	r2, [r3, #0]
 800029a:	4b10      	ldr	r3, [pc, #64]	; (80002dc <MX_USART2_UART_Init+0x4c>)
 800029c:	f44f 32e1 	mov.w	r2, #115200	; 0x1c200
 80002a0:	605a      	str	r2, [r3, #4]
 80002a2:	4b0e      	ldr	r3, [pc, #56]	; (80002dc <MX_USART2_UART_Init+0x4c>)
 80002a4:	2200      	movs	r2, #0
 80002a6:	609a      	str	r2, [r3, #8]
 80002a8:	4b0c      	ldr	r3, [pc, #48]	; (80002dc <MX_USART2_UART_Init+0x4c>)
 80002aa:	2200      	movs	r2, #0
 80002ac:	60da      	str	r2, [r3, #12]
 80002ae:	4b0b      	ldr	r3, [pc, #44]	; (80002dc <MX_USART2_UART_Init+0x4c>)
 80002b0:	2200      	movs	r2, #0
 80002b2:	611a      	str	r2, [r3, #16]
 80002b4:	4b09      	ldr	r3, [pc, #36]	; (80002dc <MX_USART2_UART_Init+0x4c>)
 80002b6:	220c      	movs	r2, #12
 80002b8:	615a      	str	r2, [r3, #20]
 80002ba:	4b08      	ldr	r3, [pc, #32]	; (80002dc <MX_USART2_UART_Init+0x4c>)
 80002bc:	2200      	movs	r2, #0
 80002be:	619a      	str	r2, [r3, #24]
 80002c0:	4b06      	ldr	r3, [pc, #24]	; (80002dc <MX_USART2_UART_Init+0x4c>)
 80002c2:	2200      	movs	r2, #0
 80002c4:	61da      	str	r2, [r3, #28]
 80002c6:	4805      	ldr	r0, [pc, #20]	; (80002dc <MX_USART2_UART_Init+0x4c>)
 80002c8:	f001 f942 	bl	8001550 <HAL_UART_Init>
 80002cc:	4603      	mov	r3, r0
 80002ce:	2b00      	cmp	r3, #0
 80002d0:	d001      	beq.n	80002d6 <MX_USART2_UART_Init+0x46>
 80002d2:	f000 f85f 	bl	8000394 <Error_Handler>
 80002d6:	bf00      	nop
 80002d8:	bd80      	pop	{r7, pc}
 80002da:	bf00      	nop
 80002dc:	20000070 	.word	0x20000070
 80002e0:	40004400 	.word	0x40004400

080002e4 <MX_USART3_UART_Init>:
 80002e4:	b580      	push	{r7, lr}
 80002e6:	af00      	add	r7, sp, #0
 80002e8:	4b11      	ldr	r3, [pc, #68]	; (8000330 <MX_USART3_UART_Init+0x4c>)
 80002ea:	4a12      	ldr	r2, [pc, #72]	; (8000334 <MX_USART3_UART_Init+0x50>)
 80002ec:	601a      	str	r2, [r3, #0]
 80002ee:	4b10      	ldr	r3, [pc, #64]	; (8000330 <MX_USART3_UART_Init+0x4c>)
 80002f0:	f44f 32e1 	mov.w	r2, #115200	; 0x1c200
 80002f4:	605a      	str	r2, [r3, #4]
 80002f6:	4b0e      	ldr	r3, [pc, #56]	; (8000330 <MX_USART3_UART_Init+0x4c>)
 80002f8:	2200      	movs	r2, #0
 80002fa:	609a      	str	r2, [r3, #8]
 80002fc:	4b0c      	ldr	r3, [pc, #48]	; (8000330 <MX_USART3_UART_Init+0x4c>)
 80002fe:	2200      	movs	r2, #0
 8000300:	60da      	str	r2, [r3, #12]
 8000302:	4b0b      	ldr	r3, [pc, #44]	; (8000330 <MX_USART3_UART_Init+0x4c>)
 8000304:	2200      	movs	r2, #0
 8000306:	611a      	str	r2, [r3, #16]
 8000308:	4b09      	ldr	r3, [pc, #36]	; (8000330 <MX_USART3_UART_Init+0x4c>)
 800030a:	220c      	movs	r2, #12
 800030c:	615a      	str	r2, [r3, #20]
 800030e:	4b08      	ldr	r3, [pc, #32]	; (8000330 <MX_USART3_UART_Init+0x4c>)
 8000310:	2200      	movs	r2, #0
 8000312:	619a      	str	r2, [r3, #24]
 8000314:	4b06      	ldr	r3, [pc, #24]	; (8000330 <MX_USART3_UART_Init+0x4c>)
 8000316:	2200      	movs	r2, #0
 8000318:	61da      	str	r2, [r3, #28]
 800031a:	4805      	ldr	r0, [pc, #20]	; (8000330 <MX_USART3_UART_Init+0x4c>)
 800031c:	f001 f918 	bl	8001550 <HAL_UART_Init>
 8000320:	4603      	mov	r3, r0
 8000322:	2b00      	cmp	r3, #0
 8000324:	d001      	beq.n	800032a <MX_USART3_UART_Init+0x46>
 8000326:	f000 f835 	bl	8000394 <Error_Handler>
 800032a:	bf00      	nop
 800032c:	bd80      	pop	{r7, pc}
 800032e:	bf00      	nop
 8000330:	2000002c 	.word	0x2000002c
 8000334:	40004800 	.word	0x40004800

08000338 <MX_GPIO_Init>:
 8000338:	b480      	push	{r7}
 800033a:	b085      	sub	sp, #20
 800033c:	af00      	add	r7, sp, #0
 800033e:	4b14      	ldr	r3, [pc, #80]	; (8000390 <MX_GPIO_Init+0x58>)
 8000340:	699b      	ldr	r3, [r3, #24]
 8000342:	4a13      	ldr	r2, [pc, #76]	; (8000390 <MX_GPIO_Init+0x58>)
 8000344:	f043 0320 	orr.w	r3, r3, #32
 8000348:	6193      	str	r3, [r2, #24]
 800034a:	4b11      	ldr	r3, [pc, #68]	; (8000390 <MX_GPIO_Init+0x58>)
 800034c:	699b      	ldr	r3, [r3, #24]
 800034e:	f003 0320 	and.w	r3, r3, #32
 8000352:	60fb      	str	r3, [r7, #12]
 8000354:	68fb      	ldr	r3, [r7, #12]
 8000356:	4b0e      	ldr	r3, [pc, #56]	; (8000390 <MX_GPIO_Init+0x58>)
 8000358:	699b      	ldr	r3, [r3, #24]
 800035a:	4a0d      	ldr	r2, [pc, #52]	; (8000390 <MX_GPIO_Init+0x58>)
 800035c:	f043 0304 	orr.w	r3, r3, #4
 8000360:	6193      	str	r3, [r2, #24]
 8000362:	4b0b      	ldr	r3, [pc, #44]	; (8000390 <MX_GPIO_Init+0x58>)
 8000364:	699b      	ldr	r3, [r3, #24]
 8000366:	f003 0304 	and.w	r3, r3, #4
 800036a:	60bb      	str	r3, [r7, #8]
 800036c:	68bb      	ldr	r3, [r7, #8]
 800036e:	4b08      	ldr	r3, [pc, #32]	; (8000390 <MX_GPIO_Init+0x58>)
 8000370:	699b      	ldr	r3, [r3, #24]
 8000372:	4a07      	ldr	r2, [pc, #28]	; (8000390 <MX_GPIO_Init+0x58>)
 8000374:	f043 0308 	orr.w	r3, r3, #8
 8000378:	6193      	str	r3, [r2, #24]
 800037a:	4b05      	ldr	r3, [pc, #20]	; (8000390 <MX_GPIO_Init+0x58>)
 800037c:	699b      	ldr	r3, [r3, #24]
 800037e:	f003 0308 	and.w	r3, r3, #8
 8000382:	607b      	str	r3, [r7, #4]
 8000384:	687b      	ldr	r3, [r7, #4]
 8000386:	bf00      	nop
 8000388:	3714      	adds	r7, #20
 800038a:	46bd      	mov	sp, r7
 800038c:	bc80      	pop	{r7}
 800038e:	4770      	bx	lr
 8000390:	40021000 	.word	0x40021000

08000394 <Error_Handler>:
 8000394:	b480      	push	{r7}
 8000396:	af00      	add	r7, sp, #0
 8000398:	b672      	cpsid	i
 800039a:	bf00      	nop
 800039c:	e7fe      	b.n	800039c <Error_Handler+0x8>
	...

080003a0 <HAL_MspInit>:
 80003a0:	b480      	push	{r7}
 80003a2:	b085      	sub	sp, #20
 80003a4:	af00      	add	r7, sp, #0
 80003a6:	4b15      	ldr	r3, [pc, #84]	; (80003fc <HAL_MspInit+0x5c>)
 80003a8:	699b      	ldr	r3, [r3, #24]
 80003aa:	4a14      	ldr	r2, [pc, #80]	; (80003fc <HAL_MspInit+0x5c>)
 80003ac:	f043 0301 	orr.w	r3, r3, #1
 80003b0:	6193      	str	r3, [r2, #24]
 80003b2:	4b12      	ldr	r3, [pc, #72]	; (80003fc <HAL_MspInit+0x5c>)
 80003b4:	699b      	ldr	r3, [r3, #24]
 80003b6:	f003 0301 	and.w	r3, r3, #1
 80003ba:	60bb      	str	r3, [r7, #8]
 80003bc:	68bb      	ldr	r3, [r7, #8]
 80003be:	4b0f      	ldr	r3, [pc, #60]	; (80003fc <HAL_MspInit+0x5c>)
 80003c0:	69db      	ldr	r3, [r3, #28]
 80003c2:	4a0e      	ldr	r2, [pc, #56]	; (80003fc <HAL_MspInit+0x5c>)
 80003c4:	f043 5380 	orr.w	r3, r3, #268435456	; 0x10000000
 80003c8:	61d3      	str	r3, [r2, #28]
 80003ca:	4b0c      	ldr	r3, [pc, #48]	; (80003fc <HAL_MspInit+0x5c>)
 80003cc:	69db      	ldr	r3, [r3, #28]
 80003ce:	f003 5380 	and.w	r3, r3, #268435456	; 0x10000000
 80003d2:	607b      	str	r3, [r7, #4]
 80003d4:	687b      	ldr	r3, [r7, #4]
 80003d6:	4b0a      	ldr	r3, [pc, #40]	; (8000400 <HAL_MspInit+0x60>)
 80003d8:	685b      	ldr	r3, [r3, #4]
 80003da:	60fb      	str	r3, [r7, #12]
 80003dc:	68fb      	ldr	r3, [r7, #12]
 80003de:	f023 63e0 	bic.w	r3, r3, #117440512	; 0x7000000
 80003e2:	60fb      	str	r3, [r7, #12]
 80003e4:	68fb      	ldr	r3, [r7, #12]
 80003e6:	f043 7300 	orr.w	r3, r3, #33554432	; 0x2000000
 80003ea:	60fb      	str	r3, [r7, #12]
 80003ec:	4a04      	ldr	r2, [pc, #16]	; (8000400 <HAL_MspInit+0x60>)
 80003ee:	68fb      	ldr	r3, [r7, #12]
 80003f0:	6053      	str	r3, [r2, #4]
 80003f2:	bf00      	nop
 80003f4:	3714      	adds	r7, #20
 80003f6:	46bd      	mov	sp, r7
 80003f8:	bc80      	pop	{r7}
 80003fa:	4770      	bx	lr
 80003fc:	40021000 	.word	0x40021000
 8000400:	40010000 	.word	0x40010000

08000404 <HAL_UART_MspInit>:
 8000404:	b580      	push	{r7, lr}
 8000406:	b08a      	sub	sp, #40	; 0x28
 8000408:	af00      	add	r7, sp, #0
 800040a:	6078      	str	r0, [r7, #4]
 800040c:	f107 0318 	add.w	r3, r7, #24
 8000410:	2200      	movs	r2, #0
 8000412:	601a      	str	r2, [r3, #0]
 8000414:	605a      	str	r2, [r3, #4]
 8000416:	609a      	str	r2, [r3, #8]
 8000418:	60da      	str	r2, [r3, #12]
 800041a:	687b      	ldr	r3, [r7, #4]
 800041c:	681b      	ldr	r3, [r3, #0]
 800041e:	4a3f      	ldr	r2, [pc, #252]	; (800051c <HAL_UART_MspInit+0x118>)
 8000420:	4293      	cmp	r3, r2
 8000422:	d138      	bne.n	8000496 <HAL_UART_MspInit+0x92>
 8000424:	4b3e      	ldr	r3, [pc, #248]	; (8000520 <HAL_UART_MspInit+0x11c>)
 8000426:	69db      	ldr	r3, [r3, #28]
 8000428:	4a3d      	ldr	r2, [pc, #244]	; (8000520 <HAL_UART_MspInit+0x11c>)
 800042a:	f443 3300 	orr.w	r3, r3, #131072	; 0x20000
 800042e:	61d3      	str	r3, [r2, #28]
 8000430:	4b3b      	ldr	r3, [pc, #236]	; (8000520 <HAL_UART_MspInit+0x11c>)
 8000432:	69db      	ldr	r3, [r3, #28]
 8000434:	f403 3300 	and.w	r3, r3, #131072	; 0x20000
 8000438:	617b      	str	r3, [r7, #20]
 800043a:	697b      	ldr	r3, [r7, #20]
 800043c:	4b38      	ldr	r3, [pc, #224]	; (8000520 <HAL_UART_MspInit+0x11c>)
 800043e:	699b      	ldr	r3, [r3, #24]
 8000440:	4a37      	ldr	r2, [pc, #220]	; (8000520 <HAL_UART_MspInit+0x11c>)
 8000442:	f043 0304 	orr.w	r3, r3, #4
 8000446:	6193      	str	r3, [r2, #24]
 8000448:	4b35      	ldr	r3, [pc, #212]	; (8000520 <HAL_UART_MspInit+0x11c>)
 800044a:	699b      	ldr	r3, [r3, #24]
 800044c:	f003 0304 	and.w	r3, r3, #4
 8000450:	613b      	str	r3, [r7, #16]
 8000452:	693b      	ldr	r3, [r7, #16]
 8000454:	2304      	movs	r3, #4
 8000456:	61bb      	str	r3, [r7, #24]
 8000458:	2302      	movs	r3, #2
 800045a:	61fb      	str	r3, [r7, #28]
 800045c:	2303      	movs	r3, #3
 800045e:	627b      	str	r3, [r7, #36]	; 0x24
 8000460:	f107 0318 	add.w	r3, r7, #24
 8000464:	4619      	mov	r1, r3
 8000466:	482f      	ldr	r0, [pc, #188]	; (8000524 <HAL_UART_MspInit+0x120>)
 8000468:	f000 fad4 	bl	8000a14 <HAL_GPIO_Init>
 800046c:	2308      	movs	r3, #8
 800046e:	61bb      	str	r3, [r7, #24]
 8000470:	2300      	movs	r3, #0
 8000472:	61fb      	str	r3, [r7, #28]
 8000474:	2300      	movs	r3, #0
 8000476:	623b      	str	r3, [r7, #32]
 8000478:	f107 0318 	add.w	r3, r7, #24
 800047c:	4619      	mov	r1, r3
 800047e:	4829      	ldr	r0, [pc, #164]	; (8000524 <HAL_UART_MspInit+0x120>)
 8000480:	f000 fac8 	bl	8000a14 <HAL_GPIO_Init>
 8000484:	2200      	movs	r2, #0
 8000486:	2100      	movs	r1, #0
 8000488:	2026      	movs	r0, #38	; 0x26
 800048a:	f000 fa16 	bl	80008ba <HAL_NVIC_SetPriority>
 800048e:	2026      	movs	r0, #38	; 0x26
 8000490:	f000 fa2f 	bl	80008f2 <HAL_NVIC_EnableIRQ>
 8000494:	e03e      	b.n	8000514 <HAL_UART_MspInit+0x110>
 8000496:	687b      	ldr	r3, [r7, #4]
 8000498:	681b      	ldr	r3, [r3, #0]
 800049a:	4a23      	ldr	r2, [pc, #140]	; (8000528 <HAL_UART_MspInit+0x124>)
 800049c:	4293      	cmp	r3, r2
 800049e:	d139      	bne.n	8000514 <HAL_UART_MspInit+0x110>
 80004a0:	4b1f      	ldr	r3, [pc, #124]	; (8000520 <HAL_UART_MspInit+0x11c>)
 80004a2:	69db      	ldr	r3, [r3, #28]
 80004a4:	4a1e      	ldr	r2, [pc, #120]	; (8000520 <HAL_UART_MspInit+0x11c>)
 80004a6:	f443 2380 	orr.w	r3, r3, #262144	; 0x40000
 80004aa:	61d3      	str	r3, [r2, #28]
 80004ac:	4b1c      	ldr	r3, [pc, #112]	; (8000520 <HAL_UART_MspInit+0x11c>)
 80004ae:	69db      	ldr	r3, [r3, #28]
 80004b0:	f403 2380 	and.w	r3, r3, #262144	; 0x40000
 80004b4:	60fb      	str	r3, [r7, #12]
 80004b6:	68fb      	ldr	r3, [r7, #12]
 80004b8:	4b19      	ldr	r3, [pc, #100]	; (8000520 <HAL_UART_MspInit+0x11c>)
 80004ba:	699b      	ldr	r3, [r3, #24]
 80004bc:	4a18      	ldr	r2, [pc, #96]	; (8000520 <HAL_UART_MspInit+0x11c>)
 80004be:	f043 0308 	orr.w	r3, r3, #8
 80004c2:	6193      	str	r3, [r2, #24]
 80004c4:	4b16      	ldr	r3, [pc, #88]	; (8000520 <HAL_UART_MspInit+0x11c>)
 80004c6:	699b      	ldr	r3, [r3, #24]
 80004c8:	f003 0308 	and.w	r3, r3, #8
 80004cc:	60bb      	str	r3, [r7, #8]
 80004ce:	68bb      	ldr	r3, [r7, #8]
 80004d0:	f44f 6380 	mov.w	r3, #1024	; 0x400
 80004d4:	61bb      	str	r3, [r7, #24]
 80004d6:	2302      	movs	r3, #2
 80004d8:	61fb      	str	r3, [r7, #28]
 80004da:	2303      	movs	r3, #3
 80004dc:	627b      	str	r3, [r7, #36]	; 0x24
 80004de:	f107 0318 	add.w	r3, r7, #24
 80004e2:	4619      	mov	r1, r3
 80004e4:	4811      	ldr	r0, [pc, #68]	; (800052c <HAL_UART_MspInit+0x128>)
 80004e6:	f000 fa95 	bl	8000a14 <HAL_GPIO_Init>
 80004ea:	f44f 6300 	mov.w	r3, #2048	; 0x800
 80004ee:	61bb      	str	r3, [r7, #24]
 80004f0:	2300      	movs	r3, #0
 80004f2:	61fb      	str	r3, [r7, #28]
 80004f4:	2300      	movs	r3, #0
 80004f6:	623b      	str	r3, [r7, #32]
 80004f8:	f107 0318 	add.w	r3, r7, #24
 80004fc:	4619      	mov	r1, r3
 80004fe:	480b      	ldr	r0, [pc, #44]	; (800052c <HAL_UART_MspInit+0x128>)
 8000500:	f000 fa88 	bl	8000a14 <HAL_GPIO_Init>
 8000504:	2200      	movs	r2, #0
 8000506:	2100      	movs	r1, #0
 8000508:	2027      	movs	r0, #39	; 0x27
 800050a:	f000 f9d6 	bl	80008ba <HAL_NVIC_SetPriority>
 800050e:	2027      	movs	r0, #39	; 0x27
 8000510:	f000 f9ef 	bl	80008f2 <HAL_NVIC_EnableIRQ>
 8000514:	bf00      	nop
 8000516:	3728      	adds	r7, #40	; 0x28
 8000518:	46bd      	mov	sp, r7
 800051a:	bd80      	pop	{r7, pc}
 800051c:	40004400 	.word	0x40004400
 8000520:	40021000 	.word	0x40021000
 8000524:	40010800 	.word	0x40010800
 8000528:	40004800 	.word	0x40004800
 800052c:	40010c00 	.word	0x40010c00

08000530 <NMI_Handler>:
 8000530:	b480      	push	{r7}
 8000532:	af00      	add	r7, sp, #0
 8000534:	e7fe      	b.n	8000534 <NMI_Handler+0x4>

08000536 <HardFault_Handler>:
 8000536:	b480      	push	{r7}
 8000538:	af00      	add	r7, sp, #0
 800053a:	e7fe      	b.n	800053a <HardFault_Handler+0x4>

0800053c <MemManage_Handler>:
 800053c:	b480      	push	{r7}
 800053e:	af00      	add	r7, sp, #0
 8000540:	e7fe      	b.n	8000540 <MemManage_Handler+0x4>

08000542 <BusFault_Handler>:
 8000542:	b480      	push	{r7}
 8000544:	af00      	add	r7, sp, #0
 8000546:	e7fe      	b.n	8000546 <BusFault_Handler+0x4>

08000548 <UsageFault_Handler>:
 8000548:	b480      	push	{r7}
 800054a:	af00      	add	r7, sp, #0
 800054c:	e7fe      	b.n	800054c <UsageFault_Handler+0x4>

0800054e <SVC_Handler>:
 800054e:	b480      	push	{r7}
 8000550:	af00      	add	r7, sp, #0
 8000552:	bf00      	nop
 8000554:	46bd      	mov	sp, r7
 8000556:	bc80      	pop	{r7}
 8000558:	4770      	bx	lr

0800055a <DebugMon_Handler>:
 800055a:	b480      	push	{r7}
 800055c:	af00      	add	r7, sp, #0
 800055e:	bf00      	nop
 8000560:	46bd      	mov	sp, r7
 8000562:	bc80      	pop	{r7}
 8000564:	4770      	bx	lr

08000566 <PendSV_Handler>:
 8000566:	b480      	push	{r7}
 8000568:	af00      	add	r7, sp, #0
 800056a:	bf00      	nop
 800056c:	46bd      	mov	sp, r7
 800056e:	bc80      	pop	{r7}
 8000570:	4770      	bx	lr

08000572 <SysTick_Handler>:
 8000572:	b580      	push	{r7, lr}
 8000574:	af00      	add	r7, sp, #0
 8000576:	f000 f889 	bl	800068c <HAL_IncTick>
 800057a:	bf00      	nop
 800057c:	bd80      	pop	{r7, pc}
	...

08000580 <USART2_IRQHandler>:
 8000580:	b580      	push	{r7, lr}
 8000582:	af00      	add	r7, sp, #0
 8000584:	4802      	ldr	r0, [pc, #8]	; (8000590 <USART2_IRQHandler+0x10>)
 8000586:	f001 f8c9 	bl	800171c <HAL_UART_IRQHandler>
 800058a:	bf00      	nop
 800058c:	bd80      	pop	{r7, pc}
 800058e:	bf00      	nop
 8000590:	20000070 	.word	0x20000070

08000594 <USART3_IRQHandler>:
 8000594:	b580      	push	{r7, lr}
 8000596:	af00      	add	r7, sp, #0
 8000598:	4802      	ldr	r0, [pc, #8]	; (80005a4 <USART3_IRQHandler+0x10>)
 800059a:	f001 f8bf 	bl	800171c <HAL_UART_IRQHandler>
 800059e:	bf00      	nop
 80005a0:	bd80      	pop	{r7, pc}
 80005a2:	bf00      	nop
 80005a4:	2000002c 	.word	0x2000002c

080005a8 <SystemInit>:
 80005a8:	b480      	push	{r7}
 80005aa:	af00      	add	r7, sp, #0
 80005ac:	bf00      	nop
 80005ae:	46bd      	mov	sp, r7
 80005b0:	bc80      	pop	{r7}
 80005b2:	4770      	bx	lr

080005b4 <Reset_Handler>:
 80005b4:	2100      	movs	r1, #0
 80005b6:	e003      	b.n	80005c0 <LoopCopyDataInit>

080005b8 <CopyDataInit>:
 80005b8:	4b0b      	ldr	r3, [pc, #44]	; (80005e8 <LoopFillZerobss+0x14>)
 80005ba:	585b      	ldr	r3, [r3, r1]
 80005bc:	5043      	str	r3, [r0, r1]
 80005be:	3104      	adds	r1, #4

080005c0 <LoopCopyDataInit>:
 80005c0:	480a      	ldr	r0, [pc, #40]	; (80005ec <LoopFillZerobss+0x18>)
 80005c2:	4b0b      	ldr	r3, [pc, #44]	; (80005f0 <LoopFillZerobss+0x1c>)
 80005c4:	1842      	adds	r2, r0, r1
 80005c6:	429a      	cmp	r2, r3
 80005c8:	d3f6      	bcc.n	80005b8 <CopyDataInit>
 80005ca:	4a0a      	ldr	r2, [pc, #40]	; (80005f4 <LoopFillZerobss+0x20>)
 80005cc:	e002      	b.n	80005d4 <LoopFillZerobss>

080005ce <FillZerobss>:
 80005ce:	2300      	movs	r3, #0
 80005d0:	f842 3b04 	str.w	r3, [r2], #4

080005d4 <LoopFillZerobss>:
 80005d4:	4b08      	ldr	r3, [pc, #32]	; (80005f8 <LoopFillZerobss+0x24>)
 80005d6:	429a      	cmp	r2, r3
 80005d8:	d3f9      	bcc.n	80005ce <FillZerobss>
 80005da:	f7ff ffe5 	bl	80005a8 <SystemInit>
 80005de:	f001 fb55 	bl	8001c8c <__libc_init_array>
 80005e2:	f7ff fddf 	bl	80001a4 <main>
 80005e6:	4770      	bx	lr
 80005e8:	08001d2c 	.word	0x08001d2c
 80005ec:	20000000 	.word	0x20000000
 80005f0:	20000010 	.word	0x20000010
 80005f4:	20000010 	.word	0x20000010
 80005f8:	200000b4 	.word	0x200000b4

080005fc <ADC1_2_IRQHandler>:
 80005fc:	e7fe      	b.n	80005fc <ADC1_2_IRQHandler>
	...

08000600 <HAL_Init>:
 8000600:	b580      	push	{r7, lr}
 8000602:	af00      	add	r7, sp, #0
 8000604:	4b08      	ldr	r3, [pc, #32]	; (8000628 <HAL_Init+0x28>)
 8000606:	681b      	ldr	r3, [r3, #0]
 8000608:	4a07      	ldr	r2, [pc, #28]	; (8000628 <HAL_Init+0x28>)
 800060a:	f043 0310 	orr.w	r3, r3, #16
 800060e:	6013      	str	r3, [r2, #0]
 8000610:	2003      	movs	r0, #3
 8000612:	f000 f947 	bl	80008a4 <HAL_NVIC_SetPriorityGrouping>
 8000616:	2000      	movs	r0, #0
 8000618:	f000 f808 	bl	800062c <HAL_InitTick>
 800061c:	f7ff fec0 	bl	80003a0 <HAL_MspInit>
 8000620:	2300      	movs	r3, #0
 8000622:	4618      	mov	r0, r3
 8000624:	bd80      	pop	{r7, pc}
 8000626:	bf00      	nop
 8000628:	40022000 	.word	0x40022000

0800062c <HAL_InitTick>:
 800062c:	b580      	push	{r7, lr}
 800062e:	b082      	sub	sp, #8
 8000630:	af00      	add	r7, sp, #0
 8000632:	6078      	str	r0, [r7, #4]
 8000634:	4b12      	ldr	r3, [pc, #72]	; (8000680 <HAL_InitTick+0x54>)
 8000636:	681a      	ldr	r2, [r3, #0]
 8000638:	4b12      	ldr	r3, [pc, #72]	; (8000684 <HAL_InitTick+0x58>)
 800063a:	781b      	ldrb	r3, [r3, #0]
 800063c:	4619      	mov	r1, r3
 800063e:	f44f 737a 	mov.w	r3, #1000	; 0x3e8
 8000642:	fbb3 f3f1 	udiv	r3, r3, r1
 8000646:	fbb2 f3f3 	udiv	r3, r2, r3
 800064a:	4618      	mov	r0, r3
 800064c:	f000 f95f 	bl	800090e <HAL_SYSTICK_Config>
 8000650:	4603      	mov	r3, r0
 8000652:	2b00      	cmp	r3, #0
 8000654:	d001      	beq.n	800065a <HAL_InitTick+0x2e>
 8000656:	2301      	movs	r3, #1
 8000658:	e00e      	b.n	8000678 <HAL_InitTick+0x4c>
 800065a:	687b      	ldr	r3, [r7, #4]
 800065c:	2b0f      	cmp	r3, #15
 800065e:	d80a      	bhi.n	8000676 <HAL_InitTick+0x4a>
 8000660:	2200      	movs	r2, #0
 8000662:	6879      	ldr	r1, [r7, #4]
 8000664:	f04f 30ff 	mov.w	r0, #4294967295
 8000668:	f000 f927 	bl	80008ba <HAL_NVIC_SetPriority>
 800066c:	4a06      	ldr	r2, [pc, #24]	; (8000688 <HAL_InitTick+0x5c>)
 800066e:	687b      	ldr	r3, [r7, #4]
 8000670:	6013      	str	r3, [r2, #0]
 8000672:	2300      	movs	r3, #0
 8000674:	e000      	b.n	8000678 <HAL_InitTick+0x4c>
 8000676:	2301      	movs	r3, #1
 8000678:	4618      	mov	r0, r3
 800067a:	3708      	adds	r7, #8
 800067c:	46bd      	mov	sp, r7
 800067e:	bd80      	pop	{r7, pc}
 8000680:	20000004 	.word	0x20000004
 8000684:	2000000c 	.word	0x2000000c
 8000688:	20000008 	.word	0x20000008

0800068c <HAL_IncTick>:
 800068c:	b480      	push	{r7}
 800068e:	af00      	add	r7, sp, #0
 8000690:	4b05      	ldr	r3, [pc, #20]	; (80006a8 <HAL_IncTick+0x1c>)
 8000692:	781b      	ldrb	r3, [r3, #0]
 8000694:	461a      	mov	r2, r3
 8000696:	4b05      	ldr	r3, [pc, #20]	; (80006ac <HAL_IncTick+0x20>)
 8000698:	681b      	ldr	r3, [r3, #0]
 800069a:	4413      	add	r3, r2
 800069c:	4a03      	ldr	r2, [pc, #12]	; (80006ac <HAL_IncTick+0x20>)
 800069e:	6013      	str	r3, [r2, #0]
 80006a0:	bf00      	nop
 80006a2:	46bd      	mov	sp, r7
 80006a4:	bc80      	pop	{r7}
 80006a6:	4770      	bx	lr
 80006a8:	2000000c 	.word	0x2000000c
 80006ac:	200000b0 	.word	0x200000b0

080006b0 <HAL_GetTick>:
 80006b0:	b480      	push	{r7}
 80006b2:	af00      	add	r7, sp, #0
 80006b4:	4b02      	ldr	r3, [pc, #8]	; (80006c0 <HAL_GetTick+0x10>)
 80006b6:	681b      	ldr	r3, [r3, #0]
 80006b8:	4618      	mov	r0, r3
 80006ba:	46bd      	mov	sp, r7
 80006bc:	bc80      	pop	{r7}
 80006be:	4770      	bx	lr
 80006c0:	200000b0 	.word	0x200000b0

080006c4 <HAL_Delay>:
 80006c4:	b580      	push	{r7, lr}
 80006c6:	b084      	sub	sp, #16
 80006c8:	af00      	add	r7, sp, #0
 80006ca:	6078      	str	r0, [r7, #4]
 80006cc:	f7ff fff0 	bl	80006b0 <HAL_GetTick>
 80006d0:	60b8      	str	r0, [r7, #8]
 80006d2:	687b      	ldr	r3, [r7, #4]
 80006d4:	60fb      	str	r3, [r7, #12]
 80006d6:	68fb      	ldr	r3, [r7, #12]
 80006d8:	f1b3 3fff 	cmp.w	r3, #4294967295
 80006dc:	d005      	beq.n	80006ea <HAL_Delay+0x26>
 80006de:	4b0a      	ldr	r3, [pc, #40]	; (8000708 <HAL_Delay+0x44>)
 80006e0:	781b      	ldrb	r3, [r3, #0]
 80006e2:	461a      	mov	r2, r3
 80006e4:	68fb      	ldr	r3, [r7, #12]
 80006e6:	4413      	add	r3, r2
 80006e8:	60fb      	str	r3, [r7, #12]
 80006ea:	bf00      	nop
 80006ec:	f7ff ffe0 	bl	80006b0 <HAL_GetTick>
 80006f0:	4602      	mov	r2, r0
 80006f2:	68bb      	ldr	r3, [r7, #8]
 80006f4:	1ad3      	subs	r3, r2, r3
 80006f6:	68fa      	ldr	r2, [r7, #12]
 80006f8:	429a      	cmp	r2, r3
 80006fa:	d8f7      	bhi.n	80006ec <HAL_Delay+0x28>
 80006fc:	bf00      	nop
 80006fe:	bf00      	nop
 8000700:	3710      	adds	r7, #16
 8000702:	46bd      	mov	sp, r7
 8000704:	bd80      	pop	{r7, pc}
 8000706:	bf00      	nop
 8000708:	2000000c 	.word	0x2000000c

0800070c <__NVIC_SetPriorityGrouping>:
 800070c:	b480      	push	{r7}
 800070e:	b085      	sub	sp, #20
 8000710:	af00      	add	r7, sp, #0
 8000712:	6078      	str	r0, [r7, #4]
 8000714:	687b      	ldr	r3, [r7, #4]
 8000716:	f003 0307 	and.w	r3, r3, #7
 800071a:	60fb      	str	r3, [r7, #12]
 800071c:	4b0c      	ldr	r3, [pc, #48]	; (8000750 <__NVIC_SetPriorityGrouping+0x44>)
 800071e:	68db      	ldr	r3, [r3, #12]
 8000720:	60bb      	str	r3, [r7, #8]
 8000722:	68ba      	ldr	r2, [r7, #8]
 8000724:	f64f 03ff 	movw	r3, #63743	; 0xf8ff
 8000728:	4013      	ands	r3, r2
 800072a:	60bb      	str	r3, [r7, #8]
 800072c:	68fb      	ldr	r3, [r7, #12]
 800072e:	021a      	lsls	r2, r3, #8
 8000730:	68bb      	ldr	r3, [r7, #8]
 8000732:	4313      	orrs	r3, r2
 8000734:	f043 63bf 	orr.w	r3, r3, #100139008	; 0x5f80000
 8000738:	f443 3300 	orr.w	r3, r3, #131072	; 0x20000
 800073c:	60bb      	str	r3, [r7, #8]
 800073e:	4a04      	ldr	r2, [pc, #16]	; (8000750 <__NVIC_SetPriorityGrouping+0x44>)
 8000740:	68bb      	ldr	r3, [r7, #8]
 8000742:	60d3      	str	r3, [r2, #12]
 8000744:	bf00      	nop
 8000746:	3714      	adds	r7, #20
 8000748:	46bd      	mov	sp, r7
 800074a:	bc80      	pop	{r7}
 800074c:	4770      	bx	lr
 800074e:	bf00      	nop
 8000750:	e000ed00 	.word	0xe000ed00

08000754 <__NVIC_GetPriorityGrouping>:
 8000754:	b480      	push	{r7}
 8000756:	af00      	add	r7, sp, #0
 8000758:	4b04      	ldr	r3, [pc, #16]	; (800076c <__NVIC_GetPriorityGrouping+0x18>)
 800075a:	68db      	ldr	r3, [r3, #12]
 800075c:	0a1b      	lsrs	r3, r3, #8
 800075e:	f003 0307 	and.w	r3, r3, #7
 8000762:	4618      	mov	r0, r3
 8000764:	46bd      	mov	sp, r7
 8000766:	bc80      	pop	{r7}
 8000768:	4770      	bx	lr
 800076a:	bf00      	nop
 800076c:	e000ed00 	.word	0xe000ed00

08000770 <__NVIC_EnableIRQ>:
 8000770:	b480      	push	{r7}
 8000772:	b083      	sub	sp, #12
 8000774:	af00      	add	r7, sp, #0
 8000776:	4603      	mov	r3, r0
 8000778:	71fb      	strb	r3, [r7, #7]
 800077a:	f997 3007 	ldrsb.w	r3, [r7, #7]
 800077e:	2b00      	cmp	r3, #0
 8000780:	db0b      	blt.n	800079a <__NVIC_EnableIRQ+0x2a>
 8000782:	79fb      	ldrb	r3, [r7, #7]
 8000784:	f003 021f 	and.w	r2, r3, #31
 8000788:	4906      	ldr	r1, [pc, #24]	; (80007a4 <__NVIC_EnableIRQ+0x34>)
 800078a:	f997 3007 	ldrsb.w	r3, [r7, #7]
 800078e:	095b      	lsrs	r3, r3, #5
 8000790:	2001      	movs	r0, #1
 8000792:	fa00 f202 	lsl.w	r2, r0, r2
 8000796:	f841 2023 	str.w	r2, [r1, r3, lsl #2]
 800079a:	bf00      	nop
 800079c:	370c      	adds	r7, #12
 800079e:	46bd      	mov	sp, r7
 80007a0:	bc80      	pop	{r7}
 80007a2:	4770      	bx	lr
 80007a4:	e000e100 	.word	0xe000e100

080007a8 <__NVIC_SetPriority>:
 80007a8:	b480      	push	{r7}
 80007aa:	b083      	sub	sp, #12
 80007ac:	af00      	add	r7, sp, #0
 80007ae:	4603      	mov	r3, r0
 80007b0:	6039      	str	r1, [r7, #0]
 80007b2:	71fb      	strb	r3, [r7, #7]
 80007b4:	f997 3007 	ldrsb.w	r3, [r7, #7]
 80007b8:	2b00      	cmp	r3, #0
 80007ba:	db0a      	blt.n	80007d2 <__NVIC_SetPriority+0x2a>
 80007bc:	683b      	ldr	r3, [r7, #0]
 80007be:	b2da      	uxtb	r2, r3
 80007c0:	490c      	ldr	r1, [pc, #48]	; (80007f4 <__NVIC_SetPriority+0x4c>)
 80007c2:	f997 3007 	ldrsb.w	r3, [r7, #7]
 80007c6:	0112      	lsls	r2, r2, #4
 80007c8:	b2d2      	uxtb	r2, r2
 80007ca:	440b      	add	r3, r1
 80007cc:	f883 2300 	strb.w	r2, [r3, #768]	; 0x300
 80007d0:	e00a      	b.n	80007e8 <__NVIC_SetPriority+0x40>
 80007d2:	683b      	ldr	r3, [r7, #0]
 80007d4:	b2da      	uxtb	r2, r3
 80007d6:	4908      	ldr	r1, [pc, #32]	; (80007f8 <__NVIC_SetPriority+0x50>)
 80007d8:	79fb      	ldrb	r3, [r7, #7]
 80007da:	f003 030f 	and.w	r3, r3, #15
 80007de:	3b04      	subs	r3, #4
 80007e0:	0112      	lsls	r2, r2, #4
 80007e2:	b2d2      	uxtb	r2, r2
 80007e4:	440b      	add	r3, r1
 80007e6:	761a      	strb	r2, [r3, #24]
 80007e8:	bf00      	nop
 80007ea:	370c      	adds	r7, #12
 80007ec:	46bd      	mov	sp, r7
 80007ee:	bc80      	pop	{r7}
 80007f0:	4770      	bx	lr
 80007f2:	bf00      	nop
 80007f4:	e000e100 	.word	0xe000e100
 80007f8:	e000ed00 	.word	0xe000ed00

080007fc <NVIC_EncodePriority>:
 80007fc:	b480      	push	{r7}
 80007fe:	b089      	sub	sp, #36	; 0x24
 8000800:	af00      	add	r7, sp, #0
 8000802:	60f8      	str	r0, [r7, #12]
 8000804:	60b9      	str	r1, [r7, #8]
 8000806:	607a      	str	r2, [r7, #4]
 8000808:	68fb      	ldr	r3, [r7, #12]
 800080a:	f003 0307 	and.w	r3, r3, #7
 800080e:	61fb      	str	r3, [r7, #28]
 8000810:	69fb      	ldr	r3, [r7, #28]
 8000812:	f1c3 0307 	rsb	r3, r3, #7
 8000816:	2b04      	cmp	r3, #4
 8000818:	bf28      	it	cs
 800081a:	2304      	movcs	r3, #4
 800081c:	61bb      	str	r3, [r7, #24]
 800081e:	69fb      	ldr	r3, [r7, #28]
 8000820:	3304      	adds	r3, #4
 8000822:	2b06      	cmp	r3, #6
 8000824:	d902      	bls.n	800082c <NVIC_EncodePriority+0x30>
 8000826:	69fb      	ldr	r3, [r7, #28]
 8000828:	3b03      	subs	r3, #3
 800082a:	e000      	b.n	800082e <NVIC_EncodePriority+0x32>
 800082c:	2300      	movs	r3, #0
 800082e:	617b      	str	r3, [r7, #20]
 8000830:	f04f 32ff 	mov.w	r2, #4294967295
 8000834:	69bb      	ldr	r3, [r7, #24]
 8000836:	fa02 f303 	lsl.w	r3, r2, r3
 800083a:	43da      	mvns	r2, r3
 800083c:	68bb      	ldr	r3, [r7, #8]
 800083e:	401a      	ands	r2, r3
 8000840:	697b      	ldr	r3, [r7, #20]
 8000842:	409a      	lsls	r2, r3
 8000844:	f04f 31ff 	mov.w	r1, #4294967295
 8000848:	697b      	ldr	r3, [r7, #20]
 800084a:	fa01 f303 	lsl.w	r3, r1, r3
 800084e:	43d9      	mvns	r1, r3
 8000850:	687b      	ldr	r3, [r7, #4]
 8000852:	400b      	ands	r3, r1
 8000854:	4313      	orrs	r3, r2
 8000856:	4618      	mov	r0, r3
 8000858:	3724      	adds	r7, #36	; 0x24
 800085a:	46bd      	mov	sp, r7
 800085c:	bc80      	pop	{r7}
 800085e:	4770      	bx	lr

08000860 <SysTick_Config>:
 8000860:	b580      	push	{r7, lr}
 8000862:	b082      	sub	sp, #8
 8000864:	af00      	add	r7, sp, #0
 8000866:	6078      	str	r0, [r7, #4]
 8000868:	687b      	ldr	r3, [r7, #4]
 800086a:	3b01      	subs	r3, #1
 800086c:	f1b3 7f80 	cmp.w	r3, #16777216	; 0x1000000
 8000870:	d301      	bcc.n	8000876 <SysTick_Config+0x16>
 8000872:	2301      	movs	r3, #1
 8000874:	e00f      	b.n	8000896 <SysTick_Config+0x36>
 8000876:	4a0a      	ldr	r2, [pc, #40]	; (80008a0 <SysTick_Config+0x40>)
 8000878:	687b      	ldr	r3, [r7, #4]
 800087a:	3b01      	subs	r3, #1
 800087c:	6053      	str	r3, [r2, #4]
 800087e:	210f      	movs	r1, #15
 8000880:	f04f 30ff 	mov.w	r0, #4294967295
 8000884:	f7ff ff90 	bl	80007a8 <__NVIC_SetPriority>
 8000888:	4b05      	ldr	r3, [pc, #20]	; (80008a0 <SysTick_Config+0x40>)
 800088a:	2200      	movs	r2, #0
 800088c:	609a      	str	r2, [r3, #8]
 800088e:	4b04      	ldr	r3, [pc, #16]	; (80008a0 <SysTick_Config+0x40>)
 8000890:	2207      	movs	r2, #7
 8000892:	601a      	str	r2, [r3, #0]
 8000894:	2300      	movs	r3, #0
 8000896:	4618      	mov	r0, r3
 8000898:	3708      	adds	r7, #8
 800089a:	46bd      	mov	sp, r7
 800089c:	bd80      	pop	{r7, pc}
 800089e:	bf00      	nop
 80008a0:	e000e010 	.word	0xe000e010

080008a4 <HAL_NVIC_SetPriorityGrouping>:
 80008a4:	b580      	push	{r7, lr}
 80008a6:	b082      	sub	sp, #8
 80008a8:	af00      	add	r7, sp, #0
 80008aa:	6078      	str	r0, [r7, #4]
 80008ac:	6878      	ldr	r0, [r7, #4]
 80008ae:	f7ff ff2d 	bl	800070c <__NVIC_SetPriorityGrouping>
 80008b2:	bf00      	nop
 80008b4:	3708      	adds	r7, #8
 80008b6:	46bd      	mov	sp, r7
 80008b8:	bd80      	pop	{r7, pc}

080008ba <HAL_NVIC_SetPriority>:
 80008ba:	b580      	push	{r7, lr}
 80008bc:	b086      	sub	sp, #24
 80008be:	af00      	add	r7, sp, #0
 80008c0:	4603      	mov	r3, r0
 80008c2:	60b9      	str	r1, [r7, #8]
 80008c4:	607a      	str	r2, [r7, #4]
 80008c6:	73fb      	strb	r3, [r7, #15]
 80008c8:	2300      	movs	r3, #0
 80008ca:	617b      	str	r3, [r7, #20]
 80008cc:	f7ff ff42 	bl	8000754 <__NVIC_GetPriorityGrouping>
 80008d0:	6178      	str	r0, [r7, #20]
 80008d2:	687a      	ldr	r2, [r7, #4]
 80008d4:	68b9      	ldr	r1, [r7, #8]
 80008d6:	6978      	ldr	r0, [r7, #20]
 80008d8:	f7ff ff90 	bl	80007fc <NVIC_EncodePriority>
 80008dc:	4602      	mov	r2, r0
 80008de:	f997 300f 	ldrsb.w	r3, [r7, #15]
 80008e2:	4611      	mov	r1, r2
 80008e4:	4618      	mov	r0, r3
 80008e6:	f7ff ff5f 	bl	80007a8 <__NVIC_SetPriority>
 80008ea:	bf00      	nop
 80008ec:	3718      	adds	r7, #24
 80008ee:	46bd      	mov	sp, r7
 80008f0:	bd80      	pop	{r7, pc}

080008f2 <HAL_NVIC_EnableIRQ>:
 80008f2:	b580      	push	{r7, lr}
 80008f4:	b082      	sub	sp, #8
 80008f6:	af00      	add	r7, sp, #0
 80008f8:	4603      	mov	r3, r0
 80008fa:	71fb      	strb	r3, [r7, #7]
 80008fc:	f997 3007 	ldrsb.w	r3, [r7, #7]
 8000900:	4618      	mov	r0, r3
 8000902:	f7ff ff35 	bl	8000770 <__NVIC_EnableIRQ>
 8000906:	bf00      	nop
 8000908:	3708      	adds	r7, #8
 800090a:	46bd      	mov	sp, r7
 800090c:	bd80      	pop	{r7, pc}

0800090e <HAL_SYSTICK_Config>:
 800090e:	b580      	push	{r7, lr}
 8000910:	b082      	sub	sp, #8
 8000912:	af00      	add	r7, sp, #0
 8000914:	6078      	str	r0, [r7, #4]
 8000916:	6878      	ldr	r0, [r7, #4]
 8000918:	f7ff ffa2 	bl	8000860 <SysTick_Config>
 800091c:	4603      	mov	r3, r0
 800091e:	4618      	mov	r0, r3
 8000920:	3708      	adds	r7, #8
 8000922:	46bd      	mov	sp, r7
 8000924:	bd80      	pop	{r7, pc}
	...

08000928 <HAL_DMA_Abort_IT>:
 8000928:	b580      	push	{r7, lr}
 800092a:	b084      	sub	sp, #16
 800092c:	af00      	add	r7, sp, #0
 800092e:	6078      	str	r0, [r7, #4]
 8000930:	2300      	movs	r3, #0
 8000932:	73fb      	strb	r3, [r7, #15]
 8000934:	687b      	ldr	r3, [r7, #4]
 8000936:	f893 3021 	ldrb.w	r3, [r3, #33]	; 0x21
 800093a:	2b02      	cmp	r3, #2
 800093c:	d005      	beq.n	800094a <HAL_DMA_Abort_IT+0x22>
 800093e:	687b      	ldr	r3, [r7, #4]
 8000940:	2204      	movs	r2, #4
 8000942:	639a      	str	r2, [r3, #56]	; 0x38
 8000944:	2301      	movs	r3, #1
 8000946:	73fb      	strb	r3, [r7, #15]
 8000948:	e051      	b.n	80009ee <HAL_DMA_Abort_IT+0xc6>
 800094a:	687b      	ldr	r3, [r7, #4]
 800094c:	681b      	ldr	r3, [r3, #0]
 800094e:	681a      	ldr	r2, [r3, #0]
 8000950:	687b      	ldr	r3, [r7, #4]
 8000952:	681b      	ldr	r3, [r3, #0]
 8000954:	f022 020e 	bic.w	r2, r2, #14
 8000958:	601a      	str	r2, [r3, #0]
 800095a:	687b      	ldr	r3, [r7, #4]
 800095c:	681b      	ldr	r3, [r3, #0]
 800095e:	681a      	ldr	r2, [r3, #0]
 8000960:	687b      	ldr	r3, [r7, #4]
 8000962:	681b      	ldr	r3, [r3, #0]
 8000964:	f022 0201 	bic.w	r2, r2, #1
 8000968:	601a      	str	r2, [r3, #0]
 800096a:	687b      	ldr	r3, [r7, #4]
 800096c:	681b      	ldr	r3, [r3, #0]
 800096e:	4a22      	ldr	r2, [pc, #136]	; (80009f8 <HAL_DMA_Abort_IT+0xd0>)
 8000970:	4293      	cmp	r3, r2
 8000972:	d029      	beq.n	80009c8 <HAL_DMA_Abort_IT+0xa0>
 8000974:	687b      	ldr	r3, [r7, #4]
 8000976:	681b      	ldr	r3, [r3, #0]
 8000978:	4a20      	ldr	r2, [pc, #128]	; (80009fc <HAL_DMA_Abort_IT+0xd4>)
 800097a:	4293      	cmp	r3, r2
 800097c:	d022      	beq.n	80009c4 <HAL_DMA_Abort_IT+0x9c>
 800097e:	687b      	ldr	r3, [r7, #4]
 8000980:	681b      	ldr	r3, [r3, #0]
 8000982:	4a1f      	ldr	r2, [pc, #124]	; (8000a00 <HAL_DMA_Abort_IT+0xd8>)
 8000984:	4293      	cmp	r3, r2
 8000986:	d01a      	beq.n	80009be <HAL_DMA_Abort_IT+0x96>
 8000988:	687b      	ldr	r3, [r7, #4]
 800098a:	681b      	ldr	r3, [r3, #0]
 800098c:	4a1d      	ldr	r2, [pc, #116]	; (8000a04 <HAL_DMA_Abort_IT+0xdc>)
 800098e:	4293      	cmp	r3, r2
 8000990:	d012      	beq.n	80009b8 <HAL_DMA_Abort_IT+0x90>
 8000992:	687b      	ldr	r3, [r7, #4]
 8000994:	681b      	ldr	r3, [r3, #0]
 8000996:	4a1c      	ldr	r2, [pc, #112]	; (8000a08 <HAL_DMA_Abort_IT+0xe0>)
 8000998:	4293      	cmp	r3, r2
 800099a:	d00a      	beq.n	80009b2 <HAL_DMA_Abort_IT+0x8a>
 800099c:	687b      	ldr	r3, [r7, #4]
 800099e:	681b      	ldr	r3, [r3, #0]
 80009a0:	4a1a      	ldr	r2, [pc, #104]	; (8000a0c <HAL_DMA_Abort_IT+0xe4>)
 80009a2:	4293      	cmp	r3, r2
 80009a4:	d102      	bne.n	80009ac <HAL_DMA_Abort_IT+0x84>
 80009a6:	f44f 1380 	mov.w	r3, #1048576	; 0x100000
 80009aa:	e00e      	b.n	80009ca <HAL_DMA_Abort_IT+0xa2>
 80009ac:	f04f 7380 	mov.w	r3, #16777216	; 0x1000000
 80009b0:	e00b      	b.n	80009ca <HAL_DMA_Abort_IT+0xa2>
 80009b2:	f44f 3380 	mov.w	r3, #65536	; 0x10000
 80009b6:	e008      	b.n	80009ca <HAL_DMA_Abort_IT+0xa2>
 80009b8:	f44f 5380 	mov.w	r3, #4096	; 0x1000
 80009bc:	e005      	b.n	80009ca <HAL_DMA_Abort_IT+0xa2>
 80009be:	f44f 7380 	mov.w	r3, #256	; 0x100
 80009c2:	e002      	b.n	80009ca <HAL_DMA_Abort_IT+0xa2>
 80009c4:	2310      	movs	r3, #16
 80009c6:	e000      	b.n	80009ca <HAL_DMA_Abort_IT+0xa2>
 80009c8:	2301      	movs	r3, #1
 80009ca:	4a11      	ldr	r2, [pc, #68]	; (8000a10 <HAL_DMA_Abort_IT+0xe8>)
 80009cc:	6053      	str	r3, [r2, #4]
 80009ce:	687b      	ldr	r3, [r7, #4]
 80009d0:	2201      	movs	r2, #1
 80009d2:	f883 2021 	strb.w	r2, [r3, #33]	; 0x21
 80009d6:	687b      	ldr	r3, [r7, #4]
 80009d8:	2200      	movs	r2, #0
 80009da:	f883 2020 	strb.w	r2, [r3, #32]
 80009de:	687b      	ldr	r3, [r7, #4]
 80009e0:	6b5b      	ldr	r3, [r3, #52]	; 0x34
 80009e2:	2b00      	cmp	r3, #0
 80009e4:	d003      	beq.n	80009ee <HAL_DMA_Abort_IT+0xc6>
 80009e6:	687b      	ldr	r3, [r7, #4]
 80009e8:	6b5b      	ldr	r3, [r3, #52]	; 0x34
 80009ea:	6878      	ldr	r0, [r7, #4]
 80009ec:	4798      	blx	r3
 80009ee:	7bfb      	ldrb	r3, [r7, #15]
 80009f0:	4618      	mov	r0, r3
 80009f2:	3710      	adds	r7, #16
 80009f4:	46bd      	mov	sp, r7
 80009f6:	bd80      	pop	{r7, pc}
 80009f8:	40020008 	.word	0x40020008
 80009fc:	4002001c 	.word	0x4002001c
 8000a00:	40020030 	.word	0x40020030
 8000a04:	40020044 	.word	0x40020044
 8000a08:	40020058 	.word	0x40020058
 8000a0c:	4002006c 	.word	0x4002006c
 8000a10:	40020000 	.word	0x40020000

08000a14 <HAL_GPIO_Init>:
 8000a14:	b480      	push	{r7}
 8000a16:	b08b      	sub	sp, #44	; 0x2c
 8000a18:	af00      	add	r7, sp, #0
 8000a1a:	6078      	str	r0, [r7, #4]
 8000a1c:	6039      	str	r1, [r7, #0]
 8000a1e:	2300      	movs	r3, #0
 8000a20:	627b      	str	r3, [r7, #36]	; 0x24
 8000a22:	2300      	movs	r3, #0
 8000a24:	623b      	str	r3, [r7, #32]
 8000a26:	e169      	b.n	8000cfc <HAL_GPIO_Init+0x2e8>
 8000a28:	2201      	movs	r2, #1
 8000a2a:	6a7b      	ldr	r3, [r7, #36]	; 0x24
 8000a2c:	fa02 f303 	lsl.w	r3, r2, r3
 8000a30:	61fb      	str	r3, [r7, #28]
 8000a32:	683b      	ldr	r3, [r7, #0]
 8000a34:	681b      	ldr	r3, [r3, #0]
 8000a36:	69fa      	ldr	r2, [r7, #28]
 8000a38:	4013      	ands	r3, r2
 8000a3a:	61bb      	str	r3, [r7, #24]
 8000a3c:	69ba      	ldr	r2, [r7, #24]
 8000a3e:	69fb      	ldr	r3, [r7, #28]
 8000a40:	429a      	cmp	r2, r3
 8000a42:	f040 8158 	bne.w	8000cf6 <HAL_GPIO_Init+0x2e2>
 8000a46:	683b      	ldr	r3, [r7, #0]
 8000a48:	685b      	ldr	r3, [r3, #4]
 8000a4a:	4a9a      	ldr	r2, [pc, #616]	; (8000cb4 <HAL_GPIO_Init+0x2a0>)
 8000a4c:	4293      	cmp	r3, r2
 8000a4e:	d05e      	beq.n	8000b0e <HAL_GPIO_Init+0xfa>
 8000a50:	4a98      	ldr	r2, [pc, #608]	; (8000cb4 <HAL_GPIO_Init+0x2a0>)
 8000a52:	4293      	cmp	r3, r2
 8000a54:	d875      	bhi.n	8000b42 <HAL_GPIO_Init+0x12e>
 8000a56:	4a98      	ldr	r2, [pc, #608]	; (8000cb8 <HAL_GPIO_Init+0x2a4>)
 8000a58:	4293      	cmp	r3, r2
 8000a5a:	d058      	beq.n	8000b0e <HAL_GPIO_Init+0xfa>
 8000a5c:	4a96      	ldr	r2, [pc, #600]	; (8000cb8 <HAL_GPIO_Init+0x2a4>)
 8000a5e:	4293      	cmp	r3, r2
 8000a60:	d86f      	bhi.n	8000b42 <HAL_GPIO_Init+0x12e>
 8000a62:	4a96      	ldr	r2, [pc, #600]	; (8000cbc <HAL_GPIO_Init+0x2a8>)
 8000a64:	4293      	cmp	r3, r2
 8000a66:	d052      	beq.n	8000b0e <HAL_GPIO_Init+0xfa>
 8000a68:	4a94      	ldr	r2, [pc, #592]	; (8000cbc <HAL_GPIO_Init+0x2a8>)
 8000a6a:	4293      	cmp	r3, r2
 8000a6c:	d869      	bhi.n	8000b42 <HAL_GPIO_Init+0x12e>
 8000a6e:	4a94      	ldr	r2, [pc, #592]	; (8000cc0 <HAL_GPIO_Init+0x2ac>)
 8000a70:	4293      	cmp	r3, r2
 8000a72:	d04c      	beq.n	8000b0e <HAL_GPIO_Init+0xfa>
 8000a74:	4a92      	ldr	r2, [pc, #584]	; (8000cc0 <HAL_GPIO_Init+0x2ac>)
 8000a76:	4293      	cmp	r3, r2
 8000a78:	d863      	bhi.n	8000b42 <HAL_GPIO_Init+0x12e>
 8000a7a:	4a92      	ldr	r2, [pc, #584]	; (8000cc4 <HAL_GPIO_Init+0x2b0>)
 8000a7c:	4293      	cmp	r3, r2
 8000a7e:	d046      	beq.n	8000b0e <HAL_GPIO_Init+0xfa>
 8000a80:	4a90      	ldr	r2, [pc, #576]	; (8000cc4 <HAL_GPIO_Init+0x2b0>)
 8000a82:	4293      	cmp	r3, r2
 8000a84:	d85d      	bhi.n	8000b42 <HAL_GPIO_Init+0x12e>
 8000a86:	2b12      	cmp	r3, #18
 8000a88:	d82a      	bhi.n	8000ae0 <HAL_GPIO_Init+0xcc>
 8000a8a:	2b12      	cmp	r3, #18
 8000a8c:	d859      	bhi.n	8000b42 <HAL_GPIO_Init+0x12e>
 8000a8e:	a201      	add	r2, pc, #4	; (adr r2, 8000a94 <HAL_GPIO_Init+0x80>)
 8000a90:	f852 f023 	ldr.w	pc, [r2, r3, lsl #2]
 8000a94:	08000b0f 	.word	0x08000b0f
 8000a98:	08000ae9 	.word	0x08000ae9
 8000a9c:	08000afb 	.word	0x08000afb
 8000aa0:	08000b3d 	.word	0x08000b3d
 8000aa4:	08000b43 	.word	0x08000b43
 8000aa8:	08000b43 	.word	0x08000b43
 8000aac:	08000b43 	.word	0x08000b43
 8000ab0:	08000b43 	.word	0x08000b43
 8000ab4:	08000b43 	.word	0x08000b43
 8000ab8:	08000b43 	.word	0x08000b43
 8000abc:	08000b43 	.word	0x08000b43
 8000ac0:	08000b43 	.word	0x08000b43
 8000ac4:	08000b43 	.word	0x08000b43
 8000ac8:	08000b43 	.word	0x08000b43
 8000acc:	08000b43 	.word	0x08000b43
 8000ad0:	08000b43 	.word	0x08000b43
 8000ad4:	08000b43 	.word	0x08000b43
 8000ad8:	08000af1 	.word	0x08000af1
 8000adc:	08000b05 	.word	0x08000b05
 8000ae0:	4a79      	ldr	r2, [pc, #484]	; (8000cc8 <HAL_GPIO_Init+0x2b4>)
 8000ae2:	4293      	cmp	r3, r2
 8000ae4:	d013      	beq.n	8000b0e <HAL_GPIO_Init+0xfa>
 8000ae6:	e02c      	b.n	8000b42 <HAL_GPIO_Init+0x12e>
 8000ae8:	683b      	ldr	r3, [r7, #0]
 8000aea:	68db      	ldr	r3, [r3, #12]
 8000aec:	623b      	str	r3, [r7, #32]
 8000aee:	e029      	b.n	8000b44 <HAL_GPIO_Init+0x130>
 8000af0:	683b      	ldr	r3, [r7, #0]
 8000af2:	68db      	ldr	r3, [r3, #12]
 8000af4:	3304      	adds	r3, #4
 8000af6:	623b      	str	r3, [r7, #32]
 8000af8:	e024      	b.n	8000b44 <HAL_GPIO_Init+0x130>
 8000afa:	683b      	ldr	r3, [r7, #0]
 8000afc:	68db      	ldr	r3, [r3, #12]
 8000afe:	3308      	adds	r3, #8
 8000b00:	623b      	str	r3, [r7, #32]
 8000b02:	e01f      	b.n	8000b44 <HAL_GPIO_Init+0x130>
 8000b04:	683b      	ldr	r3, [r7, #0]
 8000b06:	68db      	ldr	r3, [r3, #12]
 8000b08:	330c      	adds	r3, #12
 8000b0a:	623b      	str	r3, [r7, #32]
 8000b0c:	e01a      	b.n	8000b44 <HAL_GPIO_Init+0x130>
 8000b0e:	683b      	ldr	r3, [r7, #0]
 8000b10:	689b      	ldr	r3, [r3, #8]
 8000b12:	2b00      	cmp	r3, #0
 8000b14:	d102      	bne.n	8000b1c <HAL_GPIO_Init+0x108>
 8000b16:	2304      	movs	r3, #4
 8000b18:	623b      	str	r3, [r7, #32]
 8000b1a:	e013      	b.n	8000b44 <HAL_GPIO_Init+0x130>
 8000b1c:	683b      	ldr	r3, [r7, #0]
 8000b1e:	689b      	ldr	r3, [r3, #8]
 8000b20:	2b01      	cmp	r3, #1
 8000b22:	d105      	bne.n	8000b30 <HAL_GPIO_Init+0x11c>
 8000b24:	2308      	movs	r3, #8
 8000b26:	623b      	str	r3, [r7, #32]
 8000b28:	687b      	ldr	r3, [r7, #4]
 8000b2a:	69fa      	ldr	r2, [r7, #28]
 8000b2c:	611a      	str	r2, [r3, #16]
 8000b2e:	e009      	b.n	8000b44 <HAL_GPIO_Init+0x130>
 8000b30:	2308      	movs	r3, #8
 8000b32:	623b      	str	r3, [r7, #32]
 8000b34:	687b      	ldr	r3, [r7, #4]
 8000b36:	69fa      	ldr	r2, [r7, #28]
 8000b38:	615a      	str	r2, [r3, #20]
 8000b3a:	e003      	b.n	8000b44 <HAL_GPIO_Init+0x130>
 8000b3c:	2300      	movs	r3, #0
 8000b3e:	623b      	str	r3, [r7, #32]
 8000b40:	e000      	b.n	8000b44 <HAL_GPIO_Init+0x130>
 8000b42:	bf00      	nop
 8000b44:	69bb      	ldr	r3, [r7, #24]
 8000b46:	2bff      	cmp	r3, #255	; 0xff
 8000b48:	d801      	bhi.n	8000b4e <HAL_GPIO_Init+0x13a>
 8000b4a:	687b      	ldr	r3, [r7, #4]
 8000b4c:	e001      	b.n	8000b52 <HAL_GPIO_Init+0x13e>
 8000b4e:	687b      	ldr	r3, [r7, #4]
 8000b50:	3304      	adds	r3, #4
 8000b52:	617b      	str	r3, [r7, #20]
 8000b54:	69bb      	ldr	r3, [r7, #24]
 8000b56:	2bff      	cmp	r3, #255	; 0xff
 8000b58:	d802      	bhi.n	8000b60 <HAL_GPIO_Init+0x14c>
 8000b5a:	6a7b      	ldr	r3, [r7, #36]	; 0x24
 8000b5c:	009b      	lsls	r3, r3, #2
 8000b5e:	e002      	b.n	8000b66 <HAL_GPIO_Init+0x152>
 8000b60:	6a7b      	ldr	r3, [r7, #36]	; 0x24
 8000b62:	3b08      	subs	r3, #8
 8000b64:	009b      	lsls	r3, r3, #2
 8000b66:	613b      	str	r3, [r7, #16]
 8000b68:	697b      	ldr	r3, [r7, #20]
 8000b6a:	681a      	ldr	r2, [r3, #0]
 8000b6c:	210f      	movs	r1, #15
 8000b6e:	693b      	ldr	r3, [r7, #16]
 8000b70:	fa01 f303 	lsl.w	r3, r1, r3
 8000b74:	43db      	mvns	r3, r3
 8000b76:	401a      	ands	r2, r3
 8000b78:	6a39      	ldr	r1, [r7, #32]
 8000b7a:	693b      	ldr	r3, [r7, #16]
 8000b7c:	fa01 f303 	lsl.w	r3, r1, r3
 8000b80:	431a      	orrs	r2, r3
 8000b82:	697b      	ldr	r3, [r7, #20]
 8000b84:	601a      	str	r2, [r3, #0]
 8000b86:	683b      	ldr	r3, [r7, #0]
 8000b88:	685b      	ldr	r3, [r3, #4]
 8000b8a:	f003 5380 	and.w	r3, r3, #268435456	; 0x10000000
 8000b8e:	2b00      	cmp	r3, #0
 8000b90:	f000 80b1 	beq.w	8000cf6 <HAL_GPIO_Init+0x2e2>
 8000b94:	4b4d      	ldr	r3, [pc, #308]	; (8000ccc <HAL_GPIO_Init+0x2b8>)
 8000b96:	699b      	ldr	r3, [r3, #24]
 8000b98:	4a4c      	ldr	r2, [pc, #304]	; (8000ccc <HAL_GPIO_Init+0x2b8>)
 8000b9a:	f043 0301 	orr.w	r3, r3, #1
 8000b9e:	6193      	str	r3, [r2, #24]
 8000ba0:	4b4a      	ldr	r3, [pc, #296]	; (8000ccc <HAL_GPIO_Init+0x2b8>)
 8000ba2:	699b      	ldr	r3, [r3, #24]
 8000ba4:	f003 0301 	and.w	r3, r3, #1
 8000ba8:	60bb      	str	r3, [r7, #8]
 8000baa:	68bb      	ldr	r3, [r7, #8]
 8000bac:	4a48      	ldr	r2, [pc, #288]	; (8000cd0 <HAL_GPIO_Init+0x2bc>)
 8000bae:	6a7b      	ldr	r3, [r7, #36]	; 0x24
 8000bb0:	089b      	lsrs	r3, r3, #2
 8000bb2:	3302      	adds	r3, #2
 8000bb4:	f852 3023 	ldr.w	r3, [r2, r3, lsl #2]
 8000bb8:	60fb      	str	r3, [r7, #12]
 8000bba:	6a7b      	ldr	r3, [r7, #36]	; 0x24
 8000bbc:	f003 0303 	and.w	r3, r3, #3
 8000bc0:	009b      	lsls	r3, r3, #2
 8000bc2:	220f      	movs	r2, #15
 8000bc4:	fa02 f303 	lsl.w	r3, r2, r3
 8000bc8:	43db      	mvns	r3, r3
 8000bca:	68fa      	ldr	r2, [r7, #12]
 8000bcc:	4013      	ands	r3, r2
 8000bce:	60fb      	str	r3, [r7, #12]
 8000bd0:	687b      	ldr	r3, [r7, #4]
 8000bd2:	4a40      	ldr	r2, [pc, #256]	; (8000cd4 <HAL_GPIO_Init+0x2c0>)
 8000bd4:	4293      	cmp	r3, r2
 8000bd6:	d013      	beq.n	8000c00 <HAL_GPIO_Init+0x1ec>
 8000bd8:	687b      	ldr	r3, [r7, #4]
 8000bda:	4a3f      	ldr	r2, [pc, #252]	; (8000cd8 <HAL_GPIO_Init+0x2c4>)
 8000bdc:	4293      	cmp	r3, r2
 8000bde:	d00d      	beq.n	8000bfc <HAL_GPIO_Init+0x1e8>
 8000be0:	687b      	ldr	r3, [r7, #4]
 8000be2:	4a3e      	ldr	r2, [pc, #248]	; (8000cdc <HAL_GPIO_Init+0x2c8>)
 8000be4:	4293      	cmp	r3, r2
 8000be6:	d007      	beq.n	8000bf8 <HAL_GPIO_Init+0x1e4>
 8000be8:	687b      	ldr	r3, [r7, #4]
 8000bea:	4a3d      	ldr	r2, [pc, #244]	; (8000ce0 <HAL_GPIO_Init+0x2cc>)
 8000bec:	4293      	cmp	r3, r2
 8000bee:	d101      	bne.n	8000bf4 <HAL_GPIO_Init+0x1e0>
 8000bf0:	2303      	movs	r3, #3
 8000bf2:	e006      	b.n	8000c02 <HAL_GPIO_Init+0x1ee>
 8000bf4:	2304      	movs	r3, #4
 8000bf6:	e004      	b.n	8000c02 <HAL_GPIO_Init+0x1ee>
 8000bf8:	2302      	movs	r3, #2
 8000bfa:	e002      	b.n	8000c02 <HAL_GPIO_Init+0x1ee>
 8000bfc:	2301      	movs	r3, #1
 8000bfe:	e000      	b.n	8000c02 <HAL_GPIO_Init+0x1ee>
 8000c00:	2300      	movs	r3, #0
 8000c02:	6a7a      	ldr	r2, [r7, #36]	; 0x24
 8000c04:	f002 0203 	and.w	r2, r2, #3
 8000c08:	0092      	lsls	r2, r2, #2
 8000c0a:	4093      	lsls	r3, r2
 8000c0c:	68fa      	ldr	r2, [r7, #12]
 8000c0e:	4313      	orrs	r3, r2
 8000c10:	60fb      	str	r3, [r7, #12]
 8000c12:	492f      	ldr	r1, [pc, #188]	; (8000cd0 <HAL_GPIO_Init+0x2bc>)
 8000c14:	6a7b      	ldr	r3, [r7, #36]	; 0x24
 8000c16:	089b      	lsrs	r3, r3, #2
 8000c18:	3302      	adds	r3, #2
 8000c1a:	68fa      	ldr	r2, [r7, #12]
 8000c1c:	f841 2023 	str.w	r2, [r1, r3, lsl #2]
 8000c20:	683b      	ldr	r3, [r7, #0]
 8000c22:	685b      	ldr	r3, [r3, #4]
 8000c24:	f403 3380 	and.w	r3, r3, #65536	; 0x10000
 8000c28:	2b00      	cmp	r3, #0
 8000c2a:	d006      	beq.n	8000c3a <HAL_GPIO_Init+0x226>
 8000c2c:	4b2d      	ldr	r3, [pc, #180]	; (8000ce4 <HAL_GPIO_Init+0x2d0>)
 8000c2e:	681a      	ldr	r2, [r3, #0]
 8000c30:	492c      	ldr	r1, [pc, #176]	; (8000ce4 <HAL_GPIO_Init+0x2d0>)
 8000c32:	69bb      	ldr	r3, [r7, #24]
 8000c34:	4313      	orrs	r3, r2
 8000c36:	600b      	str	r3, [r1, #0]
 8000c38:	e006      	b.n	8000c48 <HAL_GPIO_Init+0x234>
 8000c3a:	4b2a      	ldr	r3, [pc, #168]	; (8000ce4 <HAL_GPIO_Init+0x2d0>)
 8000c3c:	681a      	ldr	r2, [r3, #0]
 8000c3e:	69bb      	ldr	r3, [r7, #24]
 8000c40:	43db      	mvns	r3, r3
 8000c42:	4928      	ldr	r1, [pc, #160]	; (8000ce4 <HAL_GPIO_Init+0x2d0>)
 8000c44:	4013      	ands	r3, r2
 8000c46:	600b      	str	r3, [r1, #0]
 8000c48:	683b      	ldr	r3, [r7, #0]
 8000c4a:	685b      	ldr	r3, [r3, #4]
 8000c4c:	f403 3300 	and.w	r3, r3, #131072	; 0x20000
 8000c50:	2b00      	cmp	r3, #0
 8000c52:	d006      	beq.n	8000c62 <HAL_GPIO_Init+0x24e>
 8000c54:	4b23      	ldr	r3, [pc, #140]	; (8000ce4 <HAL_GPIO_Init+0x2d0>)
 8000c56:	685a      	ldr	r2, [r3, #4]
 8000c58:	4922      	ldr	r1, [pc, #136]	; (8000ce4 <HAL_GPIO_Init+0x2d0>)
 8000c5a:	69bb      	ldr	r3, [r7, #24]
 8000c5c:	4313      	orrs	r3, r2
 8000c5e:	604b      	str	r3, [r1, #4]
 8000c60:	e006      	b.n	8000c70 <HAL_GPIO_Init+0x25c>
 8000c62:	4b20      	ldr	r3, [pc, #128]	; (8000ce4 <HAL_GPIO_Init+0x2d0>)
 8000c64:	685a      	ldr	r2, [r3, #4]
 8000c66:	69bb      	ldr	r3, [r7, #24]
 8000c68:	43db      	mvns	r3, r3
 8000c6a:	491e      	ldr	r1, [pc, #120]	; (8000ce4 <HAL_GPIO_Init+0x2d0>)
 8000c6c:	4013      	ands	r3, r2
 8000c6e:	604b      	str	r3, [r1, #4]
 8000c70:	683b      	ldr	r3, [r7, #0]
 8000c72:	685b      	ldr	r3, [r3, #4]
 8000c74:	f403 1380 	and.w	r3, r3, #1048576	; 0x100000
 8000c78:	2b00      	cmp	r3, #0
 8000c7a:	d006      	beq.n	8000c8a <HAL_GPIO_Init+0x276>
 8000c7c:	4b19      	ldr	r3, [pc, #100]	; (8000ce4 <HAL_GPIO_Init+0x2d0>)
 8000c7e:	689a      	ldr	r2, [r3, #8]
 8000c80:	4918      	ldr	r1, [pc, #96]	; (8000ce4 <HAL_GPIO_Init+0x2d0>)
 8000c82:	69bb      	ldr	r3, [r7, #24]
 8000c84:	4313      	orrs	r3, r2
 8000c86:	608b      	str	r3, [r1, #8]
 8000c88:	e006      	b.n	8000c98 <HAL_GPIO_Init+0x284>
 8000c8a:	4b16      	ldr	r3, [pc, #88]	; (8000ce4 <HAL_GPIO_Init+0x2d0>)
 8000c8c:	689a      	ldr	r2, [r3, #8]
 8000c8e:	69bb      	ldr	r3, [r7, #24]
 8000c90:	43db      	mvns	r3, r3
 8000c92:	4914      	ldr	r1, [pc, #80]	; (8000ce4 <HAL_GPIO_Init+0x2d0>)
 8000c94:	4013      	ands	r3, r2
 8000c96:	608b      	str	r3, [r1, #8]
 8000c98:	683b      	ldr	r3, [r7, #0]
 8000c9a:	685b      	ldr	r3, [r3, #4]
 8000c9c:	f403 1300 	and.w	r3, r3, #2097152	; 0x200000
 8000ca0:	2b00      	cmp	r3, #0
 8000ca2:	d021      	beq.n	8000ce8 <HAL_GPIO_Init+0x2d4>
 8000ca4:	4b0f      	ldr	r3, [pc, #60]	; (8000ce4 <HAL_GPIO_Init+0x2d0>)
 8000ca6:	68da      	ldr	r2, [r3, #12]
 8000ca8:	490e      	ldr	r1, [pc, #56]	; (8000ce4 <HAL_GPIO_Init+0x2d0>)
 8000caa:	69bb      	ldr	r3, [r7, #24]
 8000cac:	4313      	orrs	r3, r2
 8000cae:	60cb      	str	r3, [r1, #12]
 8000cb0:	e021      	b.n	8000cf6 <HAL_GPIO_Init+0x2e2>
 8000cb2:	bf00      	nop
 8000cb4:	10320000 	.word	0x10320000
 8000cb8:	10310000 	.word	0x10310000
 8000cbc:	10220000 	.word	0x10220000
 8000cc0:	10210000 	.word	0x10210000
 8000cc4:	10120000 	.word	0x10120000
 8000cc8:	10110000 	.word	0x10110000
 8000ccc:	40021000 	.word	0x40021000
 8000cd0:	40010000 	.word	0x40010000
 8000cd4:	40010800 	.word	0x40010800
 8000cd8:	40010c00 	.word	0x40010c00
 8000cdc:	40011000 	.word	0x40011000
 8000ce0:	40011400 	.word	0x40011400
 8000ce4:	40010400 	.word	0x40010400
 8000ce8:	4b0b      	ldr	r3, [pc, #44]	; (8000d18 <HAL_GPIO_Init+0x304>)
 8000cea:	68da      	ldr	r2, [r3, #12]
 8000cec:	69bb      	ldr	r3, [r7, #24]
 8000cee:	43db      	mvns	r3, r3
 8000cf0:	4909      	ldr	r1, [pc, #36]	; (8000d18 <HAL_GPIO_Init+0x304>)
 8000cf2:	4013      	ands	r3, r2
 8000cf4:	60cb      	str	r3, [r1, #12]
 8000cf6:	6a7b      	ldr	r3, [r7, #36]	; 0x24
 8000cf8:	3301      	adds	r3, #1
 8000cfa:	627b      	str	r3, [r7, #36]	; 0x24
 8000cfc:	683b      	ldr	r3, [r7, #0]
 8000cfe:	681a      	ldr	r2, [r3, #0]
 8000d00:	6a7b      	ldr	r3, [r7, #36]	; 0x24
 8000d02:	fa22 f303 	lsr.w	r3, r2, r3
 8000d06:	2b00      	cmp	r3, #0
 8000d08:	f47f ae8e 	bne.w	8000a28 <HAL_GPIO_Init+0x14>
 8000d0c:	bf00      	nop
 8000d0e:	bf00      	nop
 8000d10:	372c      	adds	r7, #44	; 0x2c
 8000d12:	46bd      	mov	sp, r7
 8000d14:	bc80      	pop	{r7}
 8000d16:	4770      	bx	lr
 8000d18:	40010400 	.word	0x40010400

08000d1c <HAL_RCC_OscConfig>:
 8000d1c:	b580      	push	{r7, lr}
 8000d1e:	b086      	sub	sp, #24
 8000d20:	af00      	add	r7, sp, #0
 8000d22:	6078      	str	r0, [r7, #4]
 8000d24:	687b      	ldr	r3, [r7, #4]
 8000d26:	2b00      	cmp	r3, #0
 8000d28:	d101      	bne.n	8000d2e <HAL_RCC_OscConfig+0x12>
 8000d2a:	2301      	movs	r3, #1
 8000d2c:	e26c      	b.n	8001208 <HAL_RCC_OscConfig+0x4ec>
 8000d2e:	687b      	ldr	r3, [r7, #4]
 8000d30:	681b      	ldr	r3, [r3, #0]
 8000d32:	f003 0301 	and.w	r3, r3, #1
 8000d36:	2b00      	cmp	r3, #0
 8000d38:	f000 8087 	beq.w	8000e4a <HAL_RCC_OscConfig+0x12e>
 8000d3c:	4b92      	ldr	r3, [pc, #584]	; (8000f88 <HAL_RCC_OscConfig+0x26c>)
 8000d3e:	685b      	ldr	r3, [r3, #4]
 8000d40:	f003 030c 	and.w	r3, r3, #12
 8000d44:	2b04      	cmp	r3, #4
 8000d46:	d00c      	beq.n	8000d62 <HAL_RCC_OscConfig+0x46>
 8000d48:	4b8f      	ldr	r3, [pc, #572]	; (8000f88 <HAL_RCC_OscConfig+0x26c>)
 8000d4a:	685b      	ldr	r3, [r3, #4]
 8000d4c:	f003 030c 	and.w	r3, r3, #12
 8000d50:	2b08      	cmp	r3, #8
 8000d52:	d112      	bne.n	8000d7a <HAL_RCC_OscConfig+0x5e>
 8000d54:	4b8c      	ldr	r3, [pc, #560]	; (8000f88 <HAL_RCC_OscConfig+0x26c>)
 8000d56:	685b      	ldr	r3, [r3, #4]
 8000d58:	f403 3380 	and.w	r3, r3, #65536	; 0x10000
 8000d5c:	f5b3 3f80 	cmp.w	r3, #65536	; 0x10000
 8000d60:	d10b      	bne.n	8000d7a <HAL_RCC_OscConfig+0x5e>
 8000d62:	4b89      	ldr	r3, [pc, #548]	; (8000f88 <HAL_RCC_OscConfig+0x26c>)
 8000d64:	681b      	ldr	r3, [r3, #0]
 8000d66:	f403 3300 	and.w	r3, r3, #131072	; 0x20000
 8000d6a:	2b00      	cmp	r3, #0
 8000d6c:	d06c      	beq.n	8000e48 <HAL_RCC_OscConfig+0x12c>
 8000d6e:	687b      	ldr	r3, [r7, #4]
 8000d70:	685b      	ldr	r3, [r3, #4]
 8000d72:	2b00      	cmp	r3, #0
 8000d74:	d168      	bne.n	8000e48 <HAL_RCC_OscConfig+0x12c>
 8000d76:	2301      	movs	r3, #1
 8000d78:	e246      	b.n	8001208 <HAL_RCC_OscConfig+0x4ec>
 8000d7a:	687b      	ldr	r3, [r7, #4]
 8000d7c:	685b      	ldr	r3, [r3, #4]
 8000d7e:	f5b3 3f80 	cmp.w	r3, #65536	; 0x10000
 8000d82:	d106      	bne.n	8000d92 <HAL_RCC_OscConfig+0x76>
 8000d84:	4b80      	ldr	r3, [pc, #512]	; (8000f88 <HAL_RCC_OscConfig+0x26c>)
 8000d86:	681b      	ldr	r3, [r3, #0]
 8000d88:	4a7f      	ldr	r2, [pc, #508]	; (8000f88 <HAL_RCC_OscConfig+0x26c>)
 8000d8a:	f443 3380 	orr.w	r3, r3, #65536	; 0x10000
 8000d8e:	6013      	str	r3, [r2, #0]
 8000d90:	e02e      	b.n	8000df0 <HAL_RCC_OscConfig+0xd4>
 8000d92:	687b      	ldr	r3, [r7, #4]
 8000d94:	685b      	ldr	r3, [r3, #4]
 8000d96:	2b00      	cmp	r3, #0
 8000d98:	d10c      	bne.n	8000db4 <HAL_RCC_OscConfig+0x98>
 8000d9a:	4b7b      	ldr	r3, [pc, #492]	; (8000f88 <HAL_RCC_OscConfig+0x26c>)
 8000d9c:	681b      	ldr	r3, [r3, #0]
 8000d9e:	4a7a      	ldr	r2, [pc, #488]	; (8000f88 <HAL_RCC_OscConfig+0x26c>)
 8000da0:	f423 3380 	bic.w	r3, r3, #65536	; 0x10000
 8000da4:	6013      	str	r3, [r2, #0]
 8000da6:	4b78      	ldr	r3, [pc, #480]	; (8000f88 <HAL_RCC_OscConfig+0x26c>)
 8000da8:	681b      	ldr	r3, [r3, #0]
 8000daa:	4a77      	ldr	r2, [pc, #476]	; (8000f88 <HAL_RCC_OscConfig+0x26c>)
 8000dac:	f423 2380 	bic.w	r3, r3, #262144	; 0x40000
 8000db0:	6013      	str	r3, [r2, #0]
 8000db2:	e01d      	b.n	8000df0 <HAL_RCC_OscConfig+0xd4>
 8000db4:	687b      	ldr	r3, [r7, #4]
 8000db6:	685b      	ldr	r3, [r3, #4]
 8000db8:	f5b3 2fa0 	cmp.w	r3, #327680	; 0x50000
 8000dbc:	d10c      	bne.n	8000dd8 <HAL_RCC_OscConfig+0xbc>
 8000dbe:	4b72      	ldr	r3, [pc, #456]	; (8000f88 <HAL_RCC_OscConfig+0x26c>)
 8000dc0:	681b      	ldr	r3, [r3, #0]
 8000dc2:	4a71      	ldr	r2, [pc, #452]	; (8000f88 <HAL_RCC_OscConfig+0x26c>)
 8000dc4:	f443 2380 	orr.w	r3, r3, #262144	; 0x40000
 8000dc8:	6013      	str	r3, [r2, #0]
 8000dca:	4b6f      	ldr	r3, [pc, #444]	; (8000f88 <HAL_RCC_OscConfig+0x26c>)
 8000dcc:	681b      	ldr	r3, [r3, #0]
 8000dce:	4a6e      	ldr	r2, [pc, #440]	; (8000f88 <HAL_RCC_OscConfig+0x26c>)
 8000dd0:	f443 3380 	orr.w	r3, r3, #65536	; 0x10000
 8000dd4:	6013      	str	r3, [r2, #0]
 8000dd6:	e00b      	b.n	8000df0 <HAL_RCC_OscConfig+0xd4>
 8000dd8:	4b6b      	ldr	r3, [pc, #428]	; (8000f88 <HAL_RCC_OscConfig+0x26c>)
 8000dda:	681b      	ldr	r3, [r3, #0]
 8000ddc:	4a6a      	ldr	r2, [pc, #424]	; (8000f88 <HAL_RCC_OscConfig+0x26c>)
 8000dde:	f423 3380 	bic.w	r3, r3, #65536	; 0x10000
 8000de2:	6013      	str	r3, [r2, #0]
 8000de4:	4b68      	ldr	r3, [pc, #416]	; (8000f88 <HAL_RCC_OscConfig+0x26c>)
 8000de6:	681b      	ldr	r3, [r3, #0]
 8000de8:	4a67      	ldr	r2, [pc, #412]	; (8000f88 <HAL_RCC_OscConfig+0x26c>)
 8000dea:	f423 2380 	bic.w	r3, r3, #262144	; 0x40000
 8000dee:	6013      	str	r3, [r2, #0]
 8000df0:	687b      	ldr	r3, [r7, #4]
 8000df2:	685b      	ldr	r3, [r3, #4]
 8000df4:	2b00      	cmp	r3, #0
 8000df6:	d013      	beq.n	8000e20 <HAL_RCC_OscConfig+0x104>
 8000df8:	f7ff fc5a 	bl	80006b0 <HAL_GetTick>
 8000dfc:	6138      	str	r0, [r7, #16]
 8000dfe:	e008      	b.n	8000e12 <HAL_RCC_OscConfig+0xf6>
 8000e00:	f7ff fc56 	bl	80006b0 <HAL_GetTick>
 8000e04:	4602      	mov	r2, r0
 8000e06:	693b      	ldr	r3, [r7, #16]
 8000e08:	1ad3      	subs	r3, r2, r3
 8000e0a:	2b64      	cmp	r3, #100	; 0x64
 8000e0c:	d901      	bls.n	8000e12 <HAL_RCC_OscConfig+0xf6>
 8000e0e:	2303      	movs	r3, #3
 8000e10:	e1fa      	b.n	8001208 <HAL_RCC_OscConfig+0x4ec>
 8000e12:	4b5d      	ldr	r3, [pc, #372]	; (8000f88 <HAL_RCC_OscConfig+0x26c>)
 8000e14:	681b      	ldr	r3, [r3, #0]
 8000e16:	f403 3300 	and.w	r3, r3, #131072	; 0x20000
 8000e1a:	2b00      	cmp	r3, #0
 8000e1c:	d0f0      	beq.n	8000e00 <HAL_RCC_OscConfig+0xe4>
 8000e1e:	e014      	b.n	8000e4a <HAL_RCC_OscConfig+0x12e>
 8000e20:	f7ff fc46 	bl	80006b0 <HAL_GetTick>
 8000e24:	6138      	str	r0, [r7, #16]
 8000e26:	e008      	b.n	8000e3a <HAL_RCC_OscConfig+0x11e>
 8000e28:	f7ff fc42 	bl	80006b0 <HAL_GetTick>
 8000e2c:	4602      	mov	r2, r0
 8000e2e:	693b      	ldr	r3, [r7, #16]
 8000e30:	1ad3      	subs	r3, r2, r3
 8000e32:	2b64      	cmp	r3, #100	; 0x64
 8000e34:	d901      	bls.n	8000e3a <HAL_RCC_OscConfig+0x11e>
 8000e36:	2303      	movs	r3, #3
 8000e38:	e1e6      	b.n	8001208 <HAL_RCC_OscConfig+0x4ec>
 8000e3a:	4b53      	ldr	r3, [pc, #332]	; (8000f88 <HAL_RCC_OscConfig+0x26c>)
 8000e3c:	681b      	ldr	r3, [r3, #0]
 8000e3e:	f403 3300 	and.w	r3, r3, #131072	; 0x20000
 8000e42:	2b00      	cmp	r3, #0
 8000e44:	d1f0      	bne.n	8000e28 <HAL_RCC_OscConfig+0x10c>
 8000e46:	e000      	b.n	8000e4a <HAL_RCC_OscConfig+0x12e>
 8000e48:	bf00      	nop
 8000e4a:	687b      	ldr	r3, [r7, #4]
 8000e4c:	681b      	ldr	r3, [r3, #0]
 8000e4e:	f003 0302 	and.w	r3, r3, #2
 8000e52:	2b00      	cmp	r3, #0
 8000e54:	d063      	beq.n	8000f1e <HAL_RCC_OscConfig+0x202>
 8000e56:	4b4c      	ldr	r3, [pc, #304]	; (8000f88 <HAL_RCC_OscConfig+0x26c>)
 8000e58:	685b      	ldr	r3, [r3, #4]
 8000e5a:	f003 030c 	and.w	r3, r3, #12
 8000e5e:	2b00      	cmp	r3, #0
 8000e60:	d00b      	beq.n	8000e7a <HAL_RCC_OscConfig+0x15e>
 8000e62:	4b49      	ldr	r3, [pc, #292]	; (8000f88 <HAL_RCC_OscConfig+0x26c>)
 8000e64:	685b      	ldr	r3, [r3, #4]
 8000e66:	f003 030c 	and.w	r3, r3, #12
 8000e6a:	2b08      	cmp	r3, #8
 8000e6c:	d11c      	bne.n	8000ea8 <HAL_RCC_OscConfig+0x18c>
 8000e6e:	4b46      	ldr	r3, [pc, #280]	; (8000f88 <HAL_RCC_OscConfig+0x26c>)
 8000e70:	685b      	ldr	r3, [r3, #4]
 8000e72:	f403 3380 	and.w	r3, r3, #65536	; 0x10000
 8000e76:	2b00      	cmp	r3, #0
 8000e78:	d116      	bne.n	8000ea8 <HAL_RCC_OscConfig+0x18c>
 8000e7a:	4b43      	ldr	r3, [pc, #268]	; (8000f88 <HAL_RCC_OscConfig+0x26c>)
 8000e7c:	681b      	ldr	r3, [r3, #0]
 8000e7e:	f003 0302 	and.w	r3, r3, #2
 8000e82:	2b00      	cmp	r3, #0
 8000e84:	d005      	beq.n	8000e92 <HAL_RCC_OscConfig+0x176>
 8000e86:	687b      	ldr	r3, [r7, #4]
 8000e88:	691b      	ldr	r3, [r3, #16]
 8000e8a:	2b01      	cmp	r3, #1
 8000e8c:	d001      	beq.n	8000e92 <HAL_RCC_OscConfig+0x176>
 8000e8e:	2301      	movs	r3, #1
 8000e90:	e1ba      	b.n	8001208 <HAL_RCC_OscConfig+0x4ec>
 8000e92:	4b3d      	ldr	r3, [pc, #244]	; (8000f88 <HAL_RCC_OscConfig+0x26c>)
 8000e94:	681b      	ldr	r3, [r3, #0]
 8000e96:	f023 02f8 	bic.w	r2, r3, #248	; 0xf8
 8000e9a:	687b      	ldr	r3, [r7, #4]
 8000e9c:	695b      	ldr	r3, [r3, #20]
 8000e9e:	00db      	lsls	r3, r3, #3
 8000ea0:	4939      	ldr	r1, [pc, #228]	; (8000f88 <HAL_RCC_OscConfig+0x26c>)
 8000ea2:	4313      	orrs	r3, r2
 8000ea4:	600b      	str	r3, [r1, #0]
 8000ea6:	e03a      	b.n	8000f1e <HAL_RCC_OscConfig+0x202>
 8000ea8:	687b      	ldr	r3, [r7, #4]
 8000eaa:	691b      	ldr	r3, [r3, #16]
 8000eac:	2b00      	cmp	r3, #0
 8000eae:	d020      	beq.n	8000ef2 <HAL_RCC_OscConfig+0x1d6>
 8000eb0:	4b36      	ldr	r3, [pc, #216]	; (8000f8c <HAL_RCC_OscConfig+0x270>)
 8000eb2:	2201      	movs	r2, #1
 8000eb4:	601a      	str	r2, [r3, #0]
 8000eb6:	f7ff fbfb 	bl	80006b0 <HAL_GetTick>
 8000eba:	6138      	str	r0, [r7, #16]
 8000ebc:	e008      	b.n	8000ed0 <HAL_RCC_OscConfig+0x1b4>
 8000ebe:	f7ff fbf7 	bl	80006b0 <HAL_GetTick>
 8000ec2:	4602      	mov	r2, r0
 8000ec4:	693b      	ldr	r3, [r7, #16]
 8000ec6:	1ad3      	subs	r3, r2, r3
 8000ec8:	2b02      	cmp	r3, #2
 8000eca:	d901      	bls.n	8000ed0 <HAL_RCC_OscConfig+0x1b4>
 8000ecc:	2303      	movs	r3, #3
 8000ece:	e19b      	b.n	8001208 <HAL_RCC_OscConfig+0x4ec>
 8000ed0:	4b2d      	ldr	r3, [pc, #180]	; (8000f88 <HAL_RCC_OscConfig+0x26c>)
 8000ed2:	681b      	ldr	r3, [r3, #0]
 8000ed4:	f003 0302 	and.w	r3, r3, #2
 8000ed8:	2b00      	cmp	r3, #0
 8000eda:	d0f0      	beq.n	8000ebe <HAL_RCC_OscConfig+0x1a2>
 8000edc:	4b2a      	ldr	r3, [pc, #168]	; (8000f88 <HAL_RCC_OscConfig+0x26c>)
 8000ede:	681b      	ldr	r3, [r3, #0]
 8000ee0:	f023 02f8 	bic.w	r2, r3, #248	; 0xf8
 8000ee4:	687b      	ldr	r3, [r7, #4]
 8000ee6:	695b      	ldr	r3, [r3, #20]
 8000ee8:	00db      	lsls	r3, r3, #3
 8000eea:	4927      	ldr	r1, [pc, #156]	; (8000f88 <HAL_RCC_OscConfig+0x26c>)
 8000eec:	4313      	orrs	r3, r2
 8000eee:	600b      	str	r3, [r1, #0]
 8000ef0:	e015      	b.n	8000f1e <HAL_RCC_OscConfig+0x202>
 8000ef2:	4b26      	ldr	r3, [pc, #152]	; (8000f8c <HAL_RCC_OscConfig+0x270>)
 8000ef4:	2200      	movs	r2, #0
 8000ef6:	601a      	str	r2, [r3, #0]
 8000ef8:	f7ff fbda 	bl	80006b0 <HAL_GetTick>
 8000efc:	6138      	str	r0, [r7, #16]
 8000efe:	e008      	b.n	8000f12 <HAL_RCC_OscConfig+0x1f6>
 8000f00:	f7ff fbd6 	bl	80006b0 <HAL_GetTick>
 8000f04:	4602      	mov	r2, r0
 8000f06:	693b      	ldr	r3, [r7, #16]
 8000f08:	1ad3      	subs	r3, r2, r3
 8000f0a:	2b02      	cmp	r3, #2
 8000f0c:	d901      	bls.n	8000f12 <HAL_RCC_OscConfig+0x1f6>
 8000f0e:	2303      	movs	r3, #3
 8000f10:	e17a      	b.n	8001208 <HAL_RCC_OscConfig+0x4ec>
 8000f12:	4b1d      	ldr	r3, [pc, #116]	; (8000f88 <HAL_RCC_OscConfig+0x26c>)
 8000f14:	681b      	ldr	r3, [r3, #0]
 8000f16:	f003 0302 	and.w	r3, r3, #2
 8000f1a:	2b00      	cmp	r3, #0
 8000f1c:	d1f0      	bne.n	8000f00 <HAL_RCC_OscConfig+0x1e4>
 8000f1e:	687b      	ldr	r3, [r7, #4]
 8000f20:	681b      	ldr	r3, [r3, #0]
 8000f22:	f003 0308 	and.w	r3, r3, #8
 8000f26:	2b00      	cmp	r3, #0
 8000f28:	d03a      	beq.n	8000fa0 <HAL_RCC_OscConfig+0x284>
 8000f2a:	687b      	ldr	r3, [r7, #4]
 8000f2c:	699b      	ldr	r3, [r3, #24]
 8000f2e:	2b00      	cmp	r3, #0
 8000f30:	d019      	beq.n	8000f66 <HAL_RCC_OscConfig+0x24a>
 8000f32:	4b17      	ldr	r3, [pc, #92]	; (8000f90 <HAL_RCC_OscConfig+0x274>)
 8000f34:	2201      	movs	r2, #1
 8000f36:	601a      	str	r2, [r3, #0]
 8000f38:	f7ff fbba 	bl	80006b0 <HAL_GetTick>
 8000f3c:	6138      	str	r0, [r7, #16]
 8000f3e:	e008      	b.n	8000f52 <HAL_RCC_OscConfig+0x236>
 8000f40:	f7ff fbb6 	bl	80006b0 <HAL_GetTick>
 8000f44:	4602      	mov	r2, r0
 8000f46:	693b      	ldr	r3, [r7, #16]
 8000f48:	1ad3      	subs	r3, r2, r3
 8000f4a:	2b02      	cmp	r3, #2
 8000f4c:	d901      	bls.n	8000f52 <HAL_RCC_OscConfig+0x236>
 8000f4e:	2303      	movs	r3, #3
 8000f50:	e15a      	b.n	8001208 <HAL_RCC_OscConfig+0x4ec>
 8000f52:	4b0d      	ldr	r3, [pc, #52]	; (8000f88 <HAL_RCC_OscConfig+0x26c>)
 8000f54:	6a5b      	ldr	r3, [r3, #36]	; 0x24
 8000f56:	f003 0302 	and.w	r3, r3, #2
 8000f5a:	2b00      	cmp	r3, #0
 8000f5c:	d0f0      	beq.n	8000f40 <HAL_RCC_OscConfig+0x224>
 8000f5e:	2001      	movs	r0, #1
 8000f60:	f000 fad8 	bl	8001514 <RCC_Delay>
 8000f64:	e01c      	b.n	8000fa0 <HAL_RCC_OscConfig+0x284>
 8000f66:	4b0a      	ldr	r3, [pc, #40]	; (8000f90 <HAL_RCC_OscConfig+0x274>)
 8000f68:	2200      	movs	r2, #0
 8000f6a:	601a      	str	r2, [r3, #0]
 8000f6c:	f7ff fba0 	bl	80006b0 <HAL_GetTick>
 8000f70:	6138      	str	r0, [r7, #16]
 8000f72:	e00f      	b.n	8000f94 <HAL_RCC_OscConfig+0x278>
 8000f74:	f7ff fb9c 	bl	80006b0 <HAL_GetTick>
 8000f78:	4602      	mov	r2, r0
 8000f7a:	693b      	ldr	r3, [r7, #16]
 8000f7c:	1ad3      	subs	r3, r2, r3
 8000f7e:	2b02      	cmp	r3, #2
 8000f80:	d908      	bls.n	8000f94 <HAL_RCC_OscConfig+0x278>
 8000f82:	2303      	movs	r3, #3
 8000f84:	e140      	b.n	8001208 <HAL_RCC_OscConfig+0x4ec>
 8000f86:	bf00      	nop
 8000f88:	40021000 	.word	0x40021000
 8000f8c:	42420000 	.word	0x42420000
 8000f90:	42420480 	.word	0x42420480
 8000f94:	4b9e      	ldr	r3, [pc, #632]	; (8001210 <HAL_RCC_OscConfig+0x4f4>)
 8000f96:	6a5b      	ldr	r3, [r3, #36]	; 0x24
 8000f98:	f003 0302 	and.w	r3, r3, #2
 8000f9c:	2b00      	cmp	r3, #0
 8000f9e:	d1e9      	bne.n	8000f74 <HAL_RCC_OscConfig+0x258>
 8000fa0:	687b      	ldr	r3, [r7, #4]
 8000fa2:	681b      	ldr	r3, [r3, #0]
 8000fa4:	f003 0304 	and.w	r3, r3, #4
 8000fa8:	2b00      	cmp	r3, #0
 8000faa:	f000 80a6 	beq.w	80010fa <HAL_RCC_OscConfig+0x3de>
 8000fae:	2300      	movs	r3, #0
 8000fb0:	75fb      	strb	r3, [r7, #23]
 8000fb2:	4b97      	ldr	r3, [pc, #604]	; (8001210 <HAL_RCC_OscConfig+0x4f4>)
 8000fb4:	69db      	ldr	r3, [r3, #28]
 8000fb6:	f003 5380 	and.w	r3, r3, #268435456	; 0x10000000
 8000fba:	2b00      	cmp	r3, #0
 8000fbc:	d10d      	bne.n	8000fda <HAL_RCC_OscConfig+0x2be>
 8000fbe:	4b94      	ldr	r3, [pc, #592]	; (8001210 <HAL_RCC_OscConfig+0x4f4>)
 8000fc0:	69db      	ldr	r3, [r3, #28]
 8000fc2:	4a93      	ldr	r2, [pc, #588]	; (8001210 <HAL_RCC_OscConfig+0x4f4>)
 8000fc4:	f043 5380 	orr.w	r3, r3, #268435456	; 0x10000000
 8000fc8:	61d3      	str	r3, [r2, #28]
 8000fca:	4b91      	ldr	r3, [pc, #580]	; (8001210 <HAL_RCC_OscConfig+0x4f4>)
 8000fcc:	69db      	ldr	r3, [r3, #28]
 8000fce:	f003 5380 	and.w	r3, r3, #268435456	; 0x10000000
 8000fd2:	60bb      	str	r3, [r7, #8]
 8000fd4:	68bb      	ldr	r3, [r7, #8]
 8000fd6:	2301      	movs	r3, #1
 8000fd8:	75fb      	strb	r3, [r7, #23]
 8000fda:	4b8e      	ldr	r3, [pc, #568]	; (8001214 <HAL_RCC_OscConfig+0x4f8>)
 8000fdc:	681b      	ldr	r3, [r3, #0]
 8000fde:	f403 7380 	and.w	r3, r3, #256	; 0x100
 8000fe2:	2b00      	cmp	r3, #0
 8000fe4:	d118      	bne.n	8001018 <HAL_RCC_OscConfig+0x2fc>
 8000fe6:	4b8b      	ldr	r3, [pc, #556]	; (8001214 <HAL_RCC_OscConfig+0x4f8>)
 8000fe8:	681b      	ldr	r3, [r3, #0]
 8000fea:	4a8a      	ldr	r2, [pc, #552]	; (8001214 <HAL_RCC_OscConfig+0x4f8>)
 8000fec:	f443 7380 	orr.w	r3, r3, #256	; 0x100
 8000ff0:	6013      	str	r3, [r2, #0]
 8000ff2:	f7ff fb5d 	bl	80006b0 <HAL_GetTick>
 8000ff6:	6138      	str	r0, [r7, #16]
 8000ff8:	e008      	b.n	800100c <HAL_RCC_OscConfig+0x2f0>
 8000ffa:	f7ff fb59 	bl	80006b0 <HAL_GetTick>
 8000ffe:	4602      	mov	r2, r0
 8001000:	693b      	ldr	r3, [r7, #16]
 8001002:	1ad3      	subs	r3, r2, r3
 8001004:	2b64      	cmp	r3, #100	; 0x64
 8001006:	d901      	bls.n	800100c <HAL_RCC_OscConfig+0x2f0>
 8001008:	2303      	movs	r3, #3
 800100a:	e0fd      	b.n	8001208 <HAL_RCC_OscConfig+0x4ec>
 800100c:	4b81      	ldr	r3, [pc, #516]	; (8001214 <HAL_RCC_OscConfig+0x4f8>)
 800100e:	681b      	ldr	r3, [r3, #0]
 8001010:	f403 7380 	and.w	r3, r3, #256	; 0x100
 8001014:	2b00      	cmp	r3, #0
 8001016:	d0f0      	beq.n	8000ffa <HAL_RCC_OscConfig+0x2de>
 8001018:	687b      	ldr	r3, [r7, #4]
 800101a:	68db      	ldr	r3, [r3, #12]
 800101c:	2b01      	cmp	r3, #1
 800101e:	d106      	bne.n	800102e <HAL_RCC_OscConfig+0x312>
 8001020:	4b7b      	ldr	r3, [pc, #492]	; (8001210 <HAL_RCC_OscConfig+0x4f4>)
 8001022:	6a1b      	ldr	r3, [r3, #32]
 8001024:	4a7a      	ldr	r2, [pc, #488]	; (8001210 <HAL_RCC_OscConfig+0x4f4>)
 8001026:	f043 0301 	orr.w	r3, r3, #1
 800102a:	6213      	str	r3, [r2, #32]
 800102c:	e02d      	b.n	800108a <HAL_RCC_OscConfig+0x36e>
 800102e:	687b      	ldr	r3, [r7, #4]
 8001030:	68db      	ldr	r3, [r3, #12]
 8001032:	2b00      	cmp	r3, #0
 8001034:	d10c      	bne.n	8001050 <HAL_RCC_OscConfig+0x334>
 8001036:	4b76      	ldr	r3, [pc, #472]	; (8001210 <HAL_RCC_OscConfig+0x4f4>)
 8001038:	6a1b      	ldr	r3, [r3, #32]
 800103a:	4a75      	ldr	r2, [pc, #468]	; (8001210 <HAL_RCC_OscConfig+0x4f4>)
 800103c:	f023 0301 	bic.w	r3, r3, #1
 8001040:	6213      	str	r3, [r2, #32]
 8001042:	4b73      	ldr	r3, [pc, #460]	; (8001210 <HAL_RCC_OscConfig+0x4f4>)
 8001044:	6a1b      	ldr	r3, [r3, #32]
 8001046:	4a72      	ldr	r2, [pc, #456]	; (8001210 <HAL_RCC_OscConfig+0x4f4>)
 8001048:	f023 0304 	bic.w	r3, r3, #4
 800104c:	6213      	str	r3, [r2, #32]
 800104e:	e01c      	b.n	800108a <HAL_RCC_OscConfig+0x36e>
 8001050:	687b      	ldr	r3, [r7, #4]
 8001052:	68db      	ldr	r3, [r3, #12]
 8001054:	2b05      	cmp	r3, #5
 8001056:	d10c      	bne.n	8001072 <HAL_RCC_OscConfig+0x356>
 8001058:	4b6d      	ldr	r3, [pc, #436]	; (8001210 <HAL_RCC_OscConfig+0x4f4>)
 800105a:	6a1b      	ldr	r3, [r3, #32]
 800105c:	4a6c      	ldr	r2, [pc, #432]	; (8001210 <HAL_RCC_OscConfig+0x4f4>)
 800105e:	f043 0304 	orr.w	r3, r3, #4
 8001062:	6213      	str	r3, [r2, #32]
 8001064:	4b6a      	ldr	r3, [pc, #424]	; (8001210 <HAL_RCC_OscConfig+0x4f4>)
 8001066:	6a1b      	ldr	r3, [r3, #32]
 8001068:	4a69      	ldr	r2, [pc, #420]	; (8001210 <HAL_RCC_OscConfig+0x4f4>)
 800106a:	f043 0301 	orr.w	r3, r3, #1
 800106e:	6213      	str	r3, [r2, #32]
 8001070:	e00b      	b.n	800108a <HAL_RCC_OscConfig+0x36e>
 8001072:	4b67      	ldr	r3, [pc, #412]	; (8001210 <HAL_RCC_OscConfig+0x4f4>)
 8001074:	6a1b      	ldr	r3, [r3, #32]
 8001076:	4a66      	ldr	r2, [pc, #408]	; (8001210 <HAL_RCC_OscConfig+0x4f4>)
 8001078:	f023 0301 	bic.w	r3, r3, #1
 800107c:	6213      	str	r3, [r2, #32]
 800107e:	4b64      	ldr	r3, [pc, #400]	; (8001210 <HAL_RCC_OscConfig+0x4f4>)
 8001080:	6a1b      	ldr	r3, [r3, #32]
 8001082:	4a63      	ldr	r2, [pc, #396]	; (8001210 <HAL_RCC_OscConfig+0x4f4>)
 8001084:	f023 0304 	bic.w	r3, r3, #4
 8001088:	6213      	str	r3, [r2, #32]
 800108a:	687b      	ldr	r3, [r7, #4]
 800108c:	68db      	ldr	r3, [r3, #12]
 800108e:	2b00      	cmp	r3, #0
 8001090:	d015      	beq.n	80010be <HAL_RCC_OscConfig+0x3a2>
 8001092:	f7ff fb0d 	bl	80006b0 <HAL_GetTick>
 8001096:	6138      	str	r0, [r7, #16]
 8001098:	e00a      	b.n	80010b0 <HAL_RCC_OscConfig+0x394>
 800109a:	f7ff fb09 	bl	80006b0 <HAL_GetTick>
 800109e:	4602      	mov	r2, r0
 80010a0:	693b      	ldr	r3, [r7, #16]
 80010a2:	1ad3      	subs	r3, r2, r3
 80010a4:	f241 3288 	movw	r2, #5000	; 0x1388
 80010a8:	4293      	cmp	r3, r2
 80010aa:	d901      	bls.n	80010b0 <HAL_RCC_OscConfig+0x394>
 80010ac:	2303      	movs	r3, #3
 80010ae:	e0ab      	b.n	8001208 <HAL_RCC_OscConfig+0x4ec>
 80010b0:	4b57      	ldr	r3, [pc, #348]	; (8001210 <HAL_RCC_OscConfig+0x4f4>)
 80010b2:	6a1b      	ldr	r3, [r3, #32]
 80010b4:	f003 0302 	and.w	r3, r3, #2
 80010b8:	2b00      	cmp	r3, #0
 80010ba:	d0ee      	beq.n	800109a <HAL_RCC_OscConfig+0x37e>
 80010bc:	e014      	b.n	80010e8 <HAL_RCC_OscConfig+0x3cc>
 80010be:	f7ff faf7 	bl	80006b0 <HAL_GetTick>
 80010c2:	6138      	str	r0, [r7, #16]
 80010c4:	e00a      	b.n	80010dc <HAL_RCC_OscConfig+0x3c0>
 80010c6:	f7ff faf3 	bl	80006b0 <HAL_GetTick>
 80010ca:	4602      	mov	r2, r0
 80010cc:	693b      	ldr	r3, [r7, #16]
 80010ce:	1ad3      	subs	r3, r2, r3
 80010d0:	f241 3288 	movw	r2, #5000	; 0x1388
 80010d4:	4293      	cmp	r3, r2
 80010d6:	d901      	bls.n	80010dc <HAL_RCC_OscConfig+0x3c0>
 80010d8:	2303      	movs	r3, #3
 80010da:	e095      	b.n	8001208 <HAL_RCC_OscConfig+0x4ec>
 80010dc:	4b4c      	ldr	r3, [pc, #304]	; (8001210 <HAL_RCC_OscConfig+0x4f4>)
 80010de:	6a1b      	ldr	r3, [r3, #32]
 80010e0:	f003 0302 	and.w	r3, r3, #2
 80010e4:	2b00      	cmp	r3, #0
 80010e6:	d1ee      	bne.n	80010c6 <HAL_RCC_OscConfig+0x3aa>
 80010e8:	7dfb      	ldrb	r3, [r7, #23]
 80010ea:	2b01      	cmp	r3, #1
 80010ec:	d105      	bne.n	80010fa <HAL_RCC_OscConfig+0x3de>
 80010ee:	4b48      	ldr	r3, [pc, #288]	; (8001210 <HAL_RCC_OscConfig+0x4f4>)
 80010f0:	69db      	ldr	r3, [r3, #28]
 80010f2:	4a47      	ldr	r2, [pc, #284]	; (8001210 <HAL_RCC_OscConfig+0x4f4>)
 80010f4:	f023 5380 	bic.w	r3, r3, #268435456	; 0x10000000
 80010f8:	61d3      	str	r3, [r2, #28]
 80010fa:	687b      	ldr	r3, [r7, #4]
 80010fc:	69db      	ldr	r3, [r3, #28]
 80010fe:	2b00      	cmp	r3, #0
 8001100:	f000 8081 	beq.w	8001206 <HAL_RCC_OscConfig+0x4ea>
 8001104:	4b42      	ldr	r3, [pc, #264]	; (8001210 <HAL_RCC_OscConfig+0x4f4>)
 8001106:	685b      	ldr	r3, [r3, #4]
 8001108:	f003 030c 	and.w	r3, r3, #12
 800110c:	2b08      	cmp	r3, #8
 800110e:	d061      	beq.n	80011d4 <HAL_RCC_OscConfig+0x4b8>
 8001110:	687b      	ldr	r3, [r7, #4]
 8001112:	69db      	ldr	r3, [r3, #28]
 8001114:	2b02      	cmp	r3, #2
 8001116:	d146      	bne.n	80011a6 <HAL_RCC_OscConfig+0x48a>
 8001118:	4b3f      	ldr	r3, [pc, #252]	; (8001218 <HAL_RCC_OscConfig+0x4fc>)
 800111a:	2200      	movs	r2, #0
 800111c:	601a      	str	r2, [r3, #0]
 800111e:	f7ff fac7 	bl	80006b0 <HAL_GetTick>
 8001122:	6138      	str	r0, [r7, #16]
 8001124:	e008      	b.n	8001138 <HAL_RCC_OscConfig+0x41c>
 8001126:	f7ff fac3 	bl	80006b0 <HAL_GetTick>
 800112a:	4602      	mov	r2, r0
 800112c:	693b      	ldr	r3, [r7, #16]
 800112e:	1ad3      	subs	r3, r2, r3
 8001130:	2b02      	cmp	r3, #2
 8001132:	d901      	bls.n	8001138 <HAL_RCC_OscConfig+0x41c>
 8001134:	2303      	movs	r3, #3
 8001136:	e067      	b.n	8001208 <HAL_RCC_OscConfig+0x4ec>
 8001138:	4b35      	ldr	r3, [pc, #212]	; (8001210 <HAL_RCC_OscConfig+0x4f4>)
 800113a:	681b      	ldr	r3, [r3, #0]
 800113c:	f003 7300 	and.w	r3, r3, #33554432	; 0x2000000
 8001140:	2b00      	cmp	r3, #0
 8001142:	d1f0      	bne.n	8001126 <HAL_RCC_OscConfig+0x40a>
 8001144:	687b      	ldr	r3, [r7, #4]
 8001146:	6a1b      	ldr	r3, [r3, #32]
 8001148:	f5b3 3f80 	cmp.w	r3, #65536	; 0x10000
 800114c:	d108      	bne.n	8001160 <HAL_RCC_OscConfig+0x444>
 800114e:	4b30      	ldr	r3, [pc, #192]	; (8001210 <HAL_RCC_OscConfig+0x4f4>)
 8001150:	685b      	ldr	r3, [r3, #4]
 8001152:	f423 3200 	bic.w	r2, r3, #131072	; 0x20000
 8001156:	687b      	ldr	r3, [r7, #4]
 8001158:	689b      	ldr	r3, [r3, #8]
 800115a:	492d      	ldr	r1, [pc, #180]	; (8001210 <HAL_RCC_OscConfig+0x4f4>)
 800115c:	4313      	orrs	r3, r2
 800115e:	604b      	str	r3, [r1, #4]
 8001160:	4b2b      	ldr	r3, [pc, #172]	; (8001210 <HAL_RCC_OscConfig+0x4f4>)
 8001162:	685b      	ldr	r3, [r3, #4]
 8001164:	f423 1274 	bic.w	r2, r3, #3997696	; 0x3d0000
 8001168:	687b      	ldr	r3, [r7, #4]
 800116a:	6a19      	ldr	r1, [r3, #32]
 800116c:	687b      	ldr	r3, [r7, #4]
 800116e:	6a5b      	ldr	r3, [r3, #36]	; 0x24
 8001170:	430b      	orrs	r3, r1
 8001172:	4927      	ldr	r1, [pc, #156]	; (8001210 <HAL_RCC_OscConfig+0x4f4>)
 8001174:	4313      	orrs	r3, r2
 8001176:	604b      	str	r3, [r1, #4]
 8001178:	4b27      	ldr	r3, [pc, #156]	; (8001218 <HAL_RCC_OscConfig+0x4fc>)
 800117a:	2201      	movs	r2, #1
 800117c:	601a      	str	r2, [r3, #0]
 800117e:	f7ff fa97 	bl	80006b0 <HAL_GetTick>
 8001182:	6138      	str	r0, [r7, #16]
 8001184:	e008      	b.n	8001198 <HAL_RCC_OscConfig+0x47c>
 8001186:	f7ff fa93 	bl	80006b0 <HAL_GetTick>
 800118a:	4602      	mov	r2, r0
 800118c:	693b      	ldr	r3, [r7, #16]
 800118e:	1ad3      	subs	r3, r2, r3
 8001190:	2b02      	cmp	r3, #2
 8001192:	d901      	bls.n	8001198 <HAL_RCC_OscConfig+0x47c>
 8001194:	2303      	movs	r3, #3
 8001196:	e037      	b.n	8001208 <HAL_RCC_OscConfig+0x4ec>
 8001198:	4b1d      	ldr	r3, [pc, #116]	; (8001210 <HAL_RCC_OscConfig+0x4f4>)
 800119a:	681b      	ldr	r3, [r3, #0]
 800119c:	f003 7300 	and.w	r3, r3, #33554432	; 0x2000000
 80011a0:	2b00      	cmp	r3, #0
 80011a2:	d0f0      	beq.n	8001186 <HAL_RCC_OscConfig+0x46a>
 80011a4:	e02f      	b.n	8001206 <HAL_RCC_OscConfig+0x4ea>
 80011a6:	4b1c      	ldr	r3, [pc, #112]	; (8001218 <HAL_RCC_OscConfig+0x4fc>)
 80011a8:	2200      	movs	r2, #0
 80011aa:	601a      	str	r2, [r3, #0]
 80011ac:	f7ff fa80 	bl	80006b0 <HAL_GetTick>
 80011b0:	6138      	str	r0, [r7, #16]
 80011b2:	e008      	b.n	80011c6 <HAL_RCC_OscConfig+0x4aa>
 80011b4:	f7ff fa7c 	bl	80006b0 <HAL_GetTick>
 80011b8:	4602      	mov	r2, r0
 80011ba:	693b      	ldr	r3, [r7, #16]
 80011bc:	1ad3      	subs	r3, r2, r3
 80011be:	2b02      	cmp	r3, #2
 80011c0:	d901      	bls.n	80011c6 <HAL_RCC_OscConfig+0x4aa>
 80011c2:	2303      	movs	r3, #3
 80011c4:	e020      	b.n	8001208 <HAL_RCC_OscConfig+0x4ec>
 80011c6:	4b12      	ldr	r3, [pc, #72]	; (8001210 <HAL_RCC_OscConfig+0x4f4>)
 80011c8:	681b      	ldr	r3, [r3, #0]
 80011ca:	f003 7300 	and.w	r3, r3, #33554432	; 0x2000000
 80011ce:	2b00      	cmp	r3, #0
 80011d0:	d1f0      	bne.n	80011b4 <HAL_RCC_OscConfig+0x498>
 80011d2:	e018      	b.n	8001206 <HAL_RCC_OscConfig+0x4ea>
 80011d4:	687b      	ldr	r3, [r7, #4]
 80011d6:	69db      	ldr	r3, [r3, #28]
 80011d8:	2b01      	cmp	r3, #1
 80011da:	d101      	bne.n	80011e0 <HAL_RCC_OscConfig+0x4c4>
 80011dc:	2301      	movs	r3, #1
 80011de:	e013      	b.n	8001208 <HAL_RCC_OscConfig+0x4ec>
 80011e0:	4b0b      	ldr	r3, [pc, #44]	; (8001210 <HAL_RCC_OscConfig+0x4f4>)
 80011e2:	685b      	ldr	r3, [r3, #4]
 80011e4:	60fb      	str	r3, [r7, #12]
 80011e6:	68fb      	ldr	r3, [r7, #12]
 80011e8:	f403 3280 	and.w	r2, r3, #65536	; 0x10000
 80011ec:	687b      	ldr	r3, [r7, #4]
 80011ee:	6a1b      	ldr	r3, [r3, #32]
 80011f0:	429a      	cmp	r2, r3
 80011f2:	d106      	bne.n	8001202 <HAL_RCC_OscConfig+0x4e6>
 80011f4:	68fb      	ldr	r3, [r7, #12]
 80011f6:	f403 1270 	and.w	r2, r3, #3932160	; 0x3c0000
 80011fa:	687b      	ldr	r3, [r7, #4]
 80011fc:	6a5b      	ldr	r3, [r3, #36]	; 0x24
 80011fe:	429a      	cmp	r2, r3
 8001200:	d001      	beq.n	8001206 <HAL_RCC_OscConfig+0x4ea>
 8001202:	2301      	movs	r3, #1
 8001204:	e000      	b.n	8001208 <HAL_RCC_OscConfig+0x4ec>
 8001206:	2300      	movs	r3, #0
 8001208:	4618      	mov	r0, r3
 800120a:	3718      	adds	r7, #24
 800120c:	46bd      	mov	sp, r7
 800120e:	bd80      	pop	{r7, pc}
 8001210:	40021000 	.word	0x40021000
 8001214:	40007000 	.word	0x40007000
 8001218:	42420060 	.word	0x42420060

0800121c <HAL_RCC_ClockConfig>:
 800121c:	b580      	push	{r7, lr}
 800121e:	b084      	sub	sp, #16
 8001220:	af00      	add	r7, sp, #0
 8001222:	6078      	str	r0, [r7, #4]
 8001224:	6039      	str	r1, [r7, #0]
 8001226:	687b      	ldr	r3, [r7, #4]
 8001228:	2b00      	cmp	r3, #0
 800122a:	d101      	bne.n	8001230 <HAL_RCC_ClockConfig+0x14>
 800122c:	2301      	movs	r3, #1
 800122e:	e0d0      	b.n	80013d2 <HAL_RCC_ClockConfig+0x1b6>
 8001230:	4b6a      	ldr	r3, [pc, #424]	; (80013dc <HAL_RCC_ClockConfig+0x1c0>)
 8001232:	681b      	ldr	r3, [r3, #0]
 8001234:	f003 0307 	and.w	r3, r3, #7
 8001238:	683a      	ldr	r2, [r7, #0]
 800123a:	429a      	cmp	r2, r3
 800123c:	d910      	bls.n	8001260 <HAL_RCC_ClockConfig+0x44>
 800123e:	4b67      	ldr	r3, [pc, #412]	; (80013dc <HAL_RCC_ClockConfig+0x1c0>)
 8001240:	681b      	ldr	r3, [r3, #0]
 8001242:	f023 0207 	bic.w	r2, r3, #7
 8001246:	4965      	ldr	r1, [pc, #404]	; (80013dc <HAL_RCC_ClockConfig+0x1c0>)
 8001248:	683b      	ldr	r3, [r7, #0]
 800124a:	4313      	orrs	r3, r2
 800124c:	600b      	str	r3, [r1, #0]
 800124e:	4b63      	ldr	r3, [pc, #396]	; (80013dc <HAL_RCC_ClockConfig+0x1c0>)
 8001250:	681b      	ldr	r3, [r3, #0]
 8001252:	f003 0307 	and.w	r3, r3, #7
 8001256:	683a      	ldr	r2, [r7, #0]
 8001258:	429a      	cmp	r2, r3
 800125a:	d001      	beq.n	8001260 <HAL_RCC_ClockConfig+0x44>
 800125c:	2301      	movs	r3, #1
 800125e:	e0b8      	b.n	80013d2 <HAL_RCC_ClockConfig+0x1b6>
 8001260:	687b      	ldr	r3, [r7, #4]
 8001262:	681b      	ldr	r3, [r3, #0]
 8001264:	f003 0302 	and.w	r3, r3, #2
 8001268:	2b00      	cmp	r3, #0
 800126a:	d020      	beq.n	80012ae <HAL_RCC_ClockConfig+0x92>
 800126c:	687b      	ldr	r3, [r7, #4]
 800126e:	681b      	ldr	r3, [r3, #0]
 8001270:	f003 0304 	and.w	r3, r3, #4
 8001274:	2b00      	cmp	r3, #0
 8001276:	d005      	beq.n	8001284 <HAL_RCC_ClockConfig+0x68>
 8001278:	4b59      	ldr	r3, [pc, #356]	; (80013e0 <HAL_RCC_ClockConfig+0x1c4>)
 800127a:	685b      	ldr	r3, [r3, #4]
 800127c:	4a58      	ldr	r2, [pc, #352]	; (80013e0 <HAL_RCC_ClockConfig+0x1c4>)
 800127e:	f443 63e0 	orr.w	r3, r3, #1792	; 0x700
 8001282:	6053      	str	r3, [r2, #4]
 8001284:	687b      	ldr	r3, [r7, #4]
 8001286:	681b      	ldr	r3, [r3, #0]
 8001288:	f003 0308 	and.w	r3, r3, #8
 800128c:	2b00      	cmp	r3, #0
 800128e:	d005      	beq.n	800129c <HAL_RCC_ClockConfig+0x80>
 8001290:	4b53      	ldr	r3, [pc, #332]	; (80013e0 <HAL_RCC_ClockConfig+0x1c4>)
 8001292:	685b      	ldr	r3, [r3, #4]
 8001294:	4a52      	ldr	r2, [pc, #328]	; (80013e0 <HAL_RCC_ClockConfig+0x1c4>)
 8001296:	f443 5360 	orr.w	r3, r3, #14336	; 0x3800
 800129a:	6053      	str	r3, [r2, #4]
 800129c:	4b50      	ldr	r3, [pc, #320]	; (80013e0 <HAL_RCC_ClockConfig+0x1c4>)
 800129e:	685b      	ldr	r3, [r3, #4]
 80012a0:	f023 02f0 	bic.w	r2, r3, #240	; 0xf0
 80012a4:	687b      	ldr	r3, [r7, #4]
 80012a6:	689b      	ldr	r3, [r3, #8]
 80012a8:	494d      	ldr	r1, [pc, #308]	; (80013e0 <HAL_RCC_ClockConfig+0x1c4>)
 80012aa:	4313      	orrs	r3, r2
 80012ac:	604b      	str	r3, [r1, #4]
 80012ae:	687b      	ldr	r3, [r7, #4]
 80012b0:	681b      	ldr	r3, [r3, #0]
 80012b2:	f003 0301 	and.w	r3, r3, #1
 80012b6:	2b00      	cmp	r3, #0
 80012b8:	d040      	beq.n	800133c <HAL_RCC_ClockConfig+0x120>
 80012ba:	687b      	ldr	r3, [r7, #4]
 80012bc:	685b      	ldr	r3, [r3, #4]
 80012be:	2b01      	cmp	r3, #1
 80012c0:	d107      	bne.n	80012d2 <HAL_RCC_ClockConfig+0xb6>
 80012c2:	4b47      	ldr	r3, [pc, #284]	; (80013e0 <HAL_RCC_ClockConfig+0x1c4>)
 80012c4:	681b      	ldr	r3, [r3, #0]
 80012c6:	f403 3300 	and.w	r3, r3, #131072	; 0x20000
 80012ca:	2b00      	cmp	r3, #0
 80012cc:	d115      	bne.n	80012fa <HAL_RCC_ClockConfig+0xde>
 80012ce:	2301      	movs	r3, #1
 80012d0:	e07f      	b.n	80013d2 <HAL_RCC_ClockConfig+0x1b6>
 80012d2:	687b      	ldr	r3, [r7, #4]
 80012d4:	685b      	ldr	r3, [r3, #4]
 80012d6:	2b02      	cmp	r3, #2
 80012d8:	d107      	bne.n	80012ea <HAL_RCC_ClockConfig+0xce>
 80012da:	4b41      	ldr	r3, [pc, #260]	; (80013e0 <HAL_RCC_ClockConfig+0x1c4>)
 80012dc:	681b      	ldr	r3, [r3, #0]
 80012de:	f003 7300 	and.w	r3, r3, #33554432	; 0x2000000
 80012e2:	2b00      	cmp	r3, #0
 80012e4:	d109      	bne.n	80012fa <HAL_RCC_ClockConfig+0xde>
 80012e6:	2301      	movs	r3, #1
 80012e8:	e073      	b.n	80013d2 <HAL_RCC_ClockConfig+0x1b6>
 80012ea:	4b3d      	ldr	r3, [pc, #244]	; (80013e0 <HAL_RCC_ClockConfig+0x1c4>)
 80012ec:	681b      	ldr	r3, [r3, #0]
 80012ee:	f003 0302 	and.w	r3, r3, #2
 80012f2:	2b00      	cmp	r3, #0
 80012f4:	d101      	bne.n	80012fa <HAL_RCC_ClockConfig+0xde>
 80012f6:	2301      	movs	r3, #1
 80012f8:	e06b      	b.n	80013d2 <HAL_RCC_ClockConfig+0x1b6>
 80012fa:	4b39      	ldr	r3, [pc, #228]	; (80013e0 <HAL_RCC_ClockConfig+0x1c4>)
 80012fc:	685b      	ldr	r3, [r3, #4]
 80012fe:	f023 0203 	bic.w	r2, r3, #3
 8001302:	687b      	ldr	r3, [r7, #4]
 8001304:	685b      	ldr	r3, [r3, #4]
 8001306:	4936      	ldr	r1, [pc, #216]	; (80013e0 <HAL_RCC_ClockConfig+0x1c4>)
 8001308:	4313      	orrs	r3, r2
 800130a:	604b      	str	r3, [r1, #4]
 800130c:	f7ff f9d0 	bl	80006b0 <HAL_GetTick>
 8001310:	60f8      	str	r0, [r7, #12]
 8001312:	e00a      	b.n	800132a <HAL_RCC_ClockConfig+0x10e>
 8001314:	f7ff f9cc 	bl	80006b0 <HAL_GetTick>
 8001318:	4602      	mov	r2, r0
 800131a:	68fb      	ldr	r3, [r7, #12]
 800131c:	1ad3      	subs	r3, r2, r3
 800131e:	f241 3288 	movw	r2, #5000	; 0x1388
 8001322:	4293      	cmp	r3, r2
 8001324:	d901      	bls.n	800132a <HAL_RCC_ClockConfig+0x10e>
 8001326:	2303      	movs	r3, #3
 8001328:	e053      	b.n	80013d2 <HAL_RCC_ClockConfig+0x1b6>
 800132a:	4b2d      	ldr	r3, [pc, #180]	; (80013e0 <HAL_RCC_ClockConfig+0x1c4>)
 800132c:	685b      	ldr	r3, [r3, #4]
 800132e:	f003 020c 	and.w	r2, r3, #12
 8001332:	687b      	ldr	r3, [r7, #4]
 8001334:	685b      	ldr	r3, [r3, #4]
 8001336:	009b      	lsls	r3, r3, #2
 8001338:	429a      	cmp	r2, r3
 800133a:	d1eb      	bne.n	8001314 <HAL_RCC_ClockConfig+0xf8>
 800133c:	4b27      	ldr	r3, [pc, #156]	; (80013dc <HAL_RCC_ClockConfig+0x1c0>)
 800133e:	681b      	ldr	r3, [r3, #0]
 8001340:	f003 0307 	and.w	r3, r3, #7
 8001344:	683a      	ldr	r2, [r7, #0]
 8001346:	429a      	cmp	r2, r3
 8001348:	d210      	bcs.n	800136c <HAL_RCC_ClockConfig+0x150>
 800134a:	4b24      	ldr	r3, [pc, #144]	; (80013dc <HAL_RCC_ClockConfig+0x1c0>)
 800134c:	681b      	ldr	r3, [r3, #0]
 800134e:	f023 0207 	bic.w	r2, r3, #7
 8001352:	4922      	ldr	r1, [pc, #136]	; (80013dc <HAL_RCC_ClockConfig+0x1c0>)
 8001354:	683b      	ldr	r3, [r7, #0]
 8001356:	4313      	orrs	r3, r2
 8001358:	600b      	str	r3, [r1, #0]
 800135a:	4b20      	ldr	r3, [pc, #128]	; (80013dc <HAL_RCC_ClockConfig+0x1c0>)
 800135c:	681b      	ldr	r3, [r3, #0]
 800135e:	f003 0307 	and.w	r3, r3, #7
 8001362:	683a      	ldr	r2, [r7, #0]
 8001364:	429a      	cmp	r2, r3
 8001366:	d001      	beq.n	800136c <HAL_RCC_ClockConfig+0x150>
 8001368:	2301      	movs	r3, #1
 800136a:	e032      	b.n	80013d2 <HAL_RCC_ClockConfig+0x1b6>
 800136c:	687b      	ldr	r3, [r7, #4]
 800136e:	681b      	ldr	r3, [r3, #0]
 8001370:	f003 0304 	and.w	r3, r3, #4
 8001374:	2b00      	cmp	r3, #0
 8001376:	d008      	beq.n	800138a <HAL_RCC_ClockConfig+0x16e>
 8001378:	4b19      	ldr	r3, [pc, #100]	; (80013e0 <HAL_RCC_ClockConfig+0x1c4>)
 800137a:	685b      	ldr	r3, [r3, #4]
 800137c:	f423 62e0 	bic.w	r2, r3, #1792	; 0x700
 8001380:	687b      	ldr	r3, [r7, #4]
 8001382:	68db      	ldr	r3, [r3, #12]
 8001384:	4916      	ldr	r1, [pc, #88]	; (80013e0 <HAL_RCC_ClockConfig+0x1c4>)
 8001386:	4313      	orrs	r3, r2
 8001388:	604b      	str	r3, [r1, #4]
 800138a:	687b      	ldr	r3, [r7, #4]
 800138c:	681b      	ldr	r3, [r3, #0]
 800138e:	f003 0308 	and.w	r3, r3, #8
 8001392:	2b00      	cmp	r3, #0
 8001394:	d009      	beq.n	80013aa <HAL_RCC_ClockConfig+0x18e>
 8001396:	4b12      	ldr	r3, [pc, #72]	; (80013e0 <HAL_RCC_ClockConfig+0x1c4>)
 8001398:	685b      	ldr	r3, [r3, #4]
 800139a:	f423 5260 	bic.w	r2, r3, #14336	; 0x3800
 800139e:	687b      	ldr	r3, [r7, #4]
 80013a0:	691b      	ldr	r3, [r3, #16]
 80013a2:	00db      	lsls	r3, r3, #3
 80013a4:	490e      	ldr	r1, [pc, #56]	; (80013e0 <HAL_RCC_ClockConfig+0x1c4>)
 80013a6:	4313      	orrs	r3, r2
 80013a8:	604b      	str	r3, [r1, #4]
 80013aa:	f000 f821 	bl	80013f0 <HAL_RCC_GetSysClockFreq>
 80013ae:	4602      	mov	r2, r0
 80013b0:	4b0b      	ldr	r3, [pc, #44]	; (80013e0 <HAL_RCC_ClockConfig+0x1c4>)
 80013b2:	685b      	ldr	r3, [r3, #4]
 80013b4:	091b      	lsrs	r3, r3, #4
 80013b6:	f003 030f 	and.w	r3, r3, #15
 80013ba:	490a      	ldr	r1, [pc, #40]	; (80013e4 <HAL_RCC_ClockConfig+0x1c8>)
 80013bc:	5ccb      	ldrb	r3, [r1, r3]
 80013be:	fa22 f303 	lsr.w	r3, r2, r3
 80013c2:	4a09      	ldr	r2, [pc, #36]	; (80013e8 <HAL_RCC_ClockConfig+0x1cc>)
 80013c4:	6013      	str	r3, [r2, #0]
 80013c6:	4b09      	ldr	r3, [pc, #36]	; (80013ec <HAL_RCC_ClockConfig+0x1d0>)
 80013c8:	681b      	ldr	r3, [r3, #0]
 80013ca:	4618      	mov	r0, r3
 80013cc:	f7ff f92e 	bl	800062c <HAL_InitTick>
 80013d0:	2300      	movs	r3, #0
 80013d2:	4618      	mov	r0, r3
 80013d4:	3710      	adds	r7, #16
 80013d6:	46bd      	mov	sp, r7
 80013d8:	bd80      	pop	{r7, pc}
 80013da:	bf00      	nop
 80013dc:	40022000 	.word	0x40022000
 80013e0:	40021000 	.word	0x40021000
 80013e4:	08001d0c 	.word	0x08001d0c
 80013e8:	20000004 	.word	0x20000004
 80013ec:	20000008 	.word	0x20000008

080013f0 <HAL_RCC_GetSysClockFreq>:
 80013f0:	b490      	push	{r4, r7}
 80013f2:	b08a      	sub	sp, #40	; 0x28
 80013f4:	af00      	add	r7, sp, #0
 80013f6:	4b2a      	ldr	r3, [pc, #168]	; (80014a0 <HAL_RCC_GetSysClockFreq+0xb0>)
 80013f8:	1d3c      	adds	r4, r7, #4
 80013fa:	cb0f      	ldmia	r3, {r0, r1, r2, r3}
 80013fc:	e884 000f 	stmia.w	r4, {r0, r1, r2, r3}
 8001400:	f240 2301 	movw	r3, #513	; 0x201
 8001404:	803b      	strh	r3, [r7, #0]
 8001406:	2300      	movs	r3, #0
 8001408:	61fb      	str	r3, [r7, #28]
 800140a:	2300      	movs	r3, #0
 800140c:	61bb      	str	r3, [r7, #24]
 800140e:	2300      	movs	r3, #0
 8001410:	627b      	str	r3, [r7, #36]	; 0x24
 8001412:	2300      	movs	r3, #0
 8001414:	617b      	str	r3, [r7, #20]
 8001416:	2300      	movs	r3, #0
 8001418:	623b      	str	r3, [r7, #32]
 800141a:	4b22      	ldr	r3, [pc, #136]	; (80014a4 <HAL_RCC_GetSysClockFreq+0xb4>)
 800141c:	685b      	ldr	r3, [r3, #4]
 800141e:	61fb      	str	r3, [r7, #28]
 8001420:	69fb      	ldr	r3, [r7, #28]
 8001422:	f003 030c 	and.w	r3, r3, #12
 8001426:	2b04      	cmp	r3, #4
 8001428:	d002      	beq.n	8001430 <HAL_RCC_GetSysClockFreq+0x40>
 800142a:	2b08      	cmp	r3, #8
 800142c:	d003      	beq.n	8001436 <HAL_RCC_GetSysClockFreq+0x46>
 800142e:	e02d      	b.n	800148c <HAL_RCC_GetSysClockFreq+0x9c>
 8001430:	4b1d      	ldr	r3, [pc, #116]	; (80014a8 <HAL_RCC_GetSysClockFreq+0xb8>)
 8001432:	623b      	str	r3, [r7, #32]
 8001434:	e02d      	b.n	8001492 <HAL_RCC_GetSysClockFreq+0xa2>
 8001436:	69fb      	ldr	r3, [r7, #28]
 8001438:	0c9b      	lsrs	r3, r3, #18
 800143a:	f003 030f 	and.w	r3, r3, #15
 800143e:	f107 0228 	add.w	r2, r7, #40	; 0x28
 8001442:	4413      	add	r3, r2
 8001444:	f813 3c24 	ldrb.w	r3, [r3, #-36]
 8001448:	617b      	str	r3, [r7, #20]
 800144a:	69fb      	ldr	r3, [r7, #28]
 800144c:	f403 3380 	and.w	r3, r3, #65536	; 0x10000
 8001450:	2b00      	cmp	r3, #0
 8001452:	d013      	beq.n	800147c <HAL_RCC_GetSysClockFreq+0x8c>
 8001454:	4b13      	ldr	r3, [pc, #76]	; (80014a4 <HAL_RCC_GetSysClockFreq+0xb4>)
 8001456:	685b      	ldr	r3, [r3, #4]
 8001458:	0c5b      	lsrs	r3, r3, #17
 800145a:	f003 0301 	and.w	r3, r3, #1
 800145e:	f107 0228 	add.w	r2, r7, #40	; 0x28
 8001462:	4413      	add	r3, r2
 8001464:	f813 3c28 	ldrb.w	r3, [r3, #-40]
 8001468:	61bb      	str	r3, [r7, #24]
 800146a:	697b      	ldr	r3, [r7, #20]
 800146c:	4a0e      	ldr	r2, [pc, #56]	; (80014a8 <HAL_RCC_GetSysClockFreq+0xb8>)
 800146e:	fb02 f203 	mul.w	r2, r2, r3
 8001472:	69bb      	ldr	r3, [r7, #24]
 8001474:	fbb2 f3f3 	udiv	r3, r2, r3
 8001478:	627b      	str	r3, [r7, #36]	; 0x24
 800147a:	e004      	b.n	8001486 <HAL_RCC_GetSysClockFreq+0x96>
 800147c:	697b      	ldr	r3, [r7, #20]
 800147e:	4a0b      	ldr	r2, [pc, #44]	; (80014ac <HAL_RCC_GetSysClockFreq+0xbc>)
 8001480:	fb02 f303 	mul.w	r3, r2, r3
 8001484:	627b      	str	r3, [r7, #36]	; 0x24
 8001486:	6a7b      	ldr	r3, [r7, #36]	; 0x24
 8001488:	623b      	str	r3, [r7, #32]
 800148a:	e002      	b.n	8001492 <HAL_RCC_GetSysClockFreq+0xa2>
 800148c:	4b06      	ldr	r3, [pc, #24]	; (80014a8 <HAL_RCC_GetSysClockFreq+0xb8>)
 800148e:	623b      	str	r3, [r7, #32]
 8001490:	bf00      	nop
 8001492:	6a3b      	ldr	r3, [r7, #32]
 8001494:	4618      	mov	r0, r3
 8001496:	3728      	adds	r7, #40	; 0x28
 8001498:	46bd      	mov	sp, r7
 800149a:	bc90      	pop	{r4, r7}
 800149c:	4770      	bx	lr
 800149e:	bf00      	nop
 80014a0:	08001cfc 	.word	0x08001cfc
 80014a4:	40021000 	.word	0x40021000
 80014a8:	007a1200 	.word	0x007a1200
 80014ac:	003d0900 	.word	0x003d0900

080014b0 <HAL_RCC_GetHCLKFreq>:
 80014b0:	b480      	push	{r7}
 80014b2:	af00      	add	r7, sp, #0
 80014b4:	4b02      	ldr	r3, [pc, #8]	; (80014c0 <HAL_RCC_GetHCLKFreq+0x10>)
 80014b6:	681b      	ldr	r3, [r3, #0]
 80014b8:	4618      	mov	r0, r3
 80014ba:	46bd      	mov	sp, r7
 80014bc:	bc80      	pop	{r7}
 80014be:	4770      	bx	lr
 80014c0:	20000004 	.word	0x20000004

080014c4 <HAL_RCC_GetPCLK1Freq>:
 80014c4:	b580      	push	{r7, lr}
 80014c6:	af00      	add	r7, sp, #0
 80014c8:	f7ff fff2 	bl	80014b0 <HAL_RCC_GetHCLKFreq>
 80014cc:	4602      	mov	r2, r0
 80014ce:	4b05      	ldr	r3, [pc, #20]	; (80014e4 <HAL_RCC_GetPCLK1Freq+0x20>)
 80014d0:	685b      	ldr	r3, [r3, #4]
 80014d2:	0a1b      	lsrs	r3, r3, #8
 80014d4:	f003 0307 	and.w	r3, r3, #7
 80014d8:	4903      	ldr	r1, [pc, #12]	; (80014e8 <HAL_RCC_GetPCLK1Freq+0x24>)
 80014da:	5ccb      	ldrb	r3, [r1, r3]
 80014dc:	fa22 f303 	lsr.w	r3, r2, r3
 80014e0:	4618      	mov	r0, r3
 80014e2:	bd80      	pop	{r7, pc}
 80014e4:	40021000 	.word	0x40021000
 80014e8:	08001d1c 	.word	0x08001d1c

080014ec <HAL_RCC_GetPCLK2Freq>:
 80014ec:	b580      	push	{r7, lr}
 80014ee:	af00      	add	r7, sp, #0
 80014f0:	f7ff ffde 	bl	80014b0 <HAL_RCC_GetHCLKFreq>
 80014f4:	4602      	mov	r2, r0
 80014f6:	4b05      	ldr	r3, [pc, #20]	; (800150c <HAL_RCC_GetPCLK2Freq+0x20>)
 80014f8:	685b      	ldr	r3, [r3, #4]
 80014fa:	0adb      	lsrs	r3, r3, #11
 80014fc:	f003 0307 	and.w	r3, r3, #7
 8001500:	4903      	ldr	r1, [pc, #12]	; (8001510 <HAL_RCC_GetPCLK2Freq+0x24>)
 8001502:	5ccb      	ldrb	r3, [r1, r3]
 8001504:	fa22 f303 	lsr.w	r3, r2, r3
 8001508:	4618      	mov	r0, r3
 800150a:	bd80      	pop	{r7, pc}
 800150c:	40021000 	.word	0x40021000
 8001510:	08001d1c 	.word	0x08001d1c

08001514 <RCC_Delay>:
 8001514:	b480      	push	{r7}
 8001516:	b085      	sub	sp, #20
 8001518:	af00      	add	r7, sp, #0
 800151a:	6078      	str	r0, [r7, #4]
 800151c:	4b0a      	ldr	r3, [pc, #40]	; (8001548 <RCC_Delay+0x34>)
 800151e:	681b      	ldr	r3, [r3, #0]
 8001520:	4a0a      	ldr	r2, [pc, #40]	; (800154c <RCC_Delay+0x38>)
 8001522:	fba2 2303 	umull	r2, r3, r2, r3
 8001526:	0a5b      	lsrs	r3, r3, #9
 8001528:	687a      	ldr	r2, [r7, #4]
 800152a:	fb02 f303 	mul.w	r3, r2, r3
 800152e:	60fb      	str	r3, [r7, #12]
 8001530:	bf00      	nop
 8001532:	68fb      	ldr	r3, [r7, #12]
 8001534:	1e5a      	subs	r2, r3, #1
 8001536:	60fa      	str	r2, [r7, #12]
 8001538:	2b00      	cmp	r3, #0
 800153a:	d1f9      	bne.n	8001530 <RCC_Delay+0x1c>
 800153c:	bf00      	nop
 800153e:	bf00      	nop
 8001540:	3714      	adds	r7, #20
 8001542:	46bd      	mov	sp, r7
 8001544:	bc80      	pop	{r7}
 8001546:	4770      	bx	lr
 8001548:	20000004 	.word	0x20000004
 800154c:	10624dd3 	.word	0x10624dd3

08001550 <HAL_UART_Init>:
 8001550:	b580      	push	{r7, lr}
 8001552:	b082      	sub	sp, #8
 8001554:	af00      	add	r7, sp, #0
 8001556:	6078      	str	r0, [r7, #4]
 8001558:	687b      	ldr	r3, [r7, #4]
 800155a:	2b00      	cmp	r3, #0
 800155c:	d101      	bne.n	8001562 <HAL_UART_Init+0x12>
 800155e:	2301      	movs	r3, #1
 8001560:	e03f      	b.n	80015e2 <HAL_UART_Init+0x92>
 8001562:	687b      	ldr	r3, [r7, #4]
 8001564:	f893 3039 	ldrb.w	r3, [r3, #57]	; 0x39
 8001568:	b2db      	uxtb	r3, r3
 800156a:	2b00      	cmp	r3, #0
 800156c:	d106      	bne.n	800157c <HAL_UART_Init+0x2c>
 800156e:	687b      	ldr	r3, [r7, #4]
 8001570:	2200      	movs	r2, #0
 8001572:	f883 2038 	strb.w	r2, [r3, #56]	; 0x38
 8001576:	6878      	ldr	r0, [r7, #4]
 8001578:	f7fe ff44 	bl	8000404 <HAL_UART_MspInit>
 800157c:	687b      	ldr	r3, [r7, #4]
 800157e:	2224      	movs	r2, #36	; 0x24
 8001580:	f883 2039 	strb.w	r2, [r3, #57]	; 0x39
 8001584:	687b      	ldr	r3, [r7, #4]
 8001586:	681b      	ldr	r3, [r3, #0]
 8001588:	68da      	ldr	r2, [r3, #12]
 800158a:	687b      	ldr	r3, [r7, #4]
 800158c:	681b      	ldr	r3, [r3, #0]
 800158e:	f422 5200 	bic.w	r2, r2, #8192	; 0x2000
 8001592:	60da      	str	r2, [r3, #12]
 8001594:	6878      	ldr	r0, [r7, #4]
 8001596:	f000 faeb 	bl	8001b70 <UART_SetConfig>
 800159a:	687b      	ldr	r3, [r7, #4]
 800159c:	681b      	ldr	r3, [r3, #0]
 800159e:	691a      	ldr	r2, [r3, #16]
 80015a0:	687b      	ldr	r3, [r7, #4]
 80015a2:	681b      	ldr	r3, [r3, #0]
 80015a4:	f422 4290 	bic.w	r2, r2, #18432	; 0x4800
 80015a8:	611a      	str	r2, [r3, #16]
 80015aa:	687b      	ldr	r3, [r7, #4]
 80015ac:	681b      	ldr	r3, [r3, #0]
 80015ae:	695a      	ldr	r2, [r3, #20]
 80015b0:	687b      	ldr	r3, [r7, #4]
 80015b2:	681b      	ldr	r3, [r3, #0]
 80015b4:	f022 022a 	bic.w	r2, r2, #42	; 0x2a
 80015b8:	615a      	str	r2, [r3, #20]
 80015ba:	687b      	ldr	r3, [r7, #4]
 80015bc:	681b      	ldr	r3, [r3, #0]
 80015be:	68da      	ldr	r2, [r3, #12]
 80015c0:	687b      	ldr	r3, [r7, #4]
 80015c2:	681b      	ldr	r3, [r3, #0]
 80015c4:	f442 5200 	orr.w	r2, r2, #8192	; 0x2000
 80015c8:	60da      	str	r2, [r3, #12]
 80015ca:	687b      	ldr	r3, [r7, #4]
 80015cc:	2200      	movs	r2, #0
 80015ce:	63da      	str	r2, [r3, #60]	; 0x3c
 80015d0:	687b      	ldr	r3, [r7, #4]
 80015d2:	2220      	movs	r2, #32
 80015d4:	f883 2039 	strb.w	r2, [r3, #57]	; 0x39
 80015d8:	687b      	ldr	r3, [r7, #4]
 80015da:	2220      	movs	r2, #32
 80015dc:	f883 203a 	strb.w	r2, [r3, #58]	; 0x3a
 80015e0:	2300      	movs	r3, #0
 80015e2:	4618      	mov	r0, r3
 80015e4:	3708      	adds	r7, #8
 80015e6:	46bd      	mov	sp, r7
 80015e8:	bd80      	pop	{r7, pc}

080015ea <HAL_UART_Transmit_IT>:
 80015ea:	b480      	push	{r7}
 80015ec:	b085      	sub	sp, #20
 80015ee:	af00      	add	r7, sp, #0
 80015f0:	60f8      	str	r0, [r7, #12]
 80015f2:	60b9      	str	r1, [r7, #8]
 80015f4:	4613      	mov	r3, r2
 80015f6:	80fb      	strh	r3, [r7, #6]
 80015f8:	68fb      	ldr	r3, [r7, #12]
 80015fa:	f893 3039 	ldrb.w	r3, [r3, #57]	; 0x39
 80015fe:	b2db      	uxtb	r3, r3
 8001600:	2b20      	cmp	r3, #32
 8001602:	d130      	bne.n	8001666 <HAL_UART_Transmit_IT+0x7c>
 8001604:	68bb      	ldr	r3, [r7, #8]
 8001606:	2b00      	cmp	r3, #0
 8001608:	d002      	beq.n	8001610 <HAL_UART_Transmit_IT+0x26>
 800160a:	88fb      	ldrh	r3, [r7, #6]
 800160c:	2b00      	cmp	r3, #0
 800160e:	d101      	bne.n	8001614 <HAL_UART_Transmit_IT+0x2a>
 8001610:	2301      	movs	r3, #1
 8001612:	e029      	b.n	8001668 <HAL_UART_Transmit_IT+0x7e>
 8001614:	68fb      	ldr	r3, [r7, #12]
 8001616:	f893 3038 	ldrb.w	r3, [r3, #56]	; 0x38
 800161a:	2b01      	cmp	r3, #1
 800161c:	d101      	bne.n	8001622 <HAL_UART_Transmit_IT+0x38>
 800161e:	2302      	movs	r3, #2
 8001620:	e022      	b.n	8001668 <HAL_UART_Transmit_IT+0x7e>
 8001622:	68fb      	ldr	r3, [r7, #12]
 8001624:	2201      	movs	r2, #1
 8001626:	f883 2038 	strb.w	r2, [r3, #56]	; 0x38
 800162a:	68fb      	ldr	r3, [r7, #12]
 800162c:	68ba      	ldr	r2, [r7, #8]
 800162e:	621a      	str	r2, [r3, #32]
 8001630:	68fb      	ldr	r3, [r7, #12]
 8001632:	88fa      	ldrh	r2, [r7, #6]
 8001634:	849a      	strh	r2, [r3, #36]	; 0x24
 8001636:	68fb      	ldr	r3, [r7, #12]
 8001638:	88fa      	ldrh	r2, [r7, #6]
 800163a:	84da      	strh	r2, [r3, #38]	; 0x26
 800163c:	68fb      	ldr	r3, [r7, #12]
 800163e:	2200      	movs	r2, #0
 8001640:	63da      	str	r2, [r3, #60]	; 0x3c
 8001642:	68fb      	ldr	r3, [r7, #12]
 8001644:	2221      	movs	r2, #33	; 0x21
 8001646:	f883 2039 	strb.w	r2, [r3, #57]	; 0x39
 800164a:	68fb      	ldr	r3, [r7, #12]
 800164c:	2200      	movs	r2, #0
 800164e:	f883 2038 	strb.w	r2, [r3, #56]	; 0x38
 8001652:	68fb      	ldr	r3, [r7, #12]
 8001654:	681b      	ldr	r3, [r3, #0]
 8001656:	68da      	ldr	r2, [r3, #12]
 8001658:	68fb      	ldr	r3, [r7, #12]
 800165a:	681b      	ldr	r3, [r3, #0]
 800165c:	f042 0280 	orr.w	r2, r2, #128	; 0x80
 8001660:	60da      	str	r2, [r3, #12]
 8001662:	2300      	movs	r3, #0
 8001664:	e000      	b.n	8001668 <HAL_UART_Transmit_IT+0x7e>
 8001666:	2302      	movs	r3, #2
 8001668:	4618      	mov	r0, r3
 800166a:	3714      	adds	r7, #20
 800166c:	46bd      	mov	sp, r7
 800166e:	bc80      	pop	{r7}
 8001670:	4770      	bx	lr

08001672 <HAL_UART_Receive_IT>:
 8001672:	b480      	push	{r7}
 8001674:	b085      	sub	sp, #20
 8001676:	af00      	add	r7, sp, #0
 8001678:	60f8      	str	r0, [r7, #12]
 800167a:	60b9      	str	r1, [r7, #8]
 800167c:	4613      	mov	r3, r2
 800167e:	80fb      	strh	r3, [r7, #6]
 8001680:	68fb      	ldr	r3, [r7, #12]
 8001682:	f893 303a 	ldrb.w	r3, [r3, #58]	; 0x3a
 8001686:	b2db      	uxtb	r3, r3
 8001688:	2b20      	cmp	r3, #32
 800168a:	d140      	bne.n	800170e <HAL_UART_Receive_IT+0x9c>
 800168c:	68bb      	ldr	r3, [r7, #8]
 800168e:	2b00      	cmp	r3, #0
 8001690:	d002      	beq.n	8001698 <HAL_UART_Receive_IT+0x26>
 8001692:	88fb      	ldrh	r3, [r7, #6]
 8001694:	2b00      	cmp	r3, #0
 8001696:	d101      	bne.n	800169c <HAL_UART_Receive_IT+0x2a>
 8001698:	2301      	movs	r3, #1
 800169a:	e039      	b.n	8001710 <HAL_UART_Receive_IT+0x9e>
 800169c:	68fb      	ldr	r3, [r7, #12]
 800169e:	f893 3038 	ldrb.w	r3, [r3, #56]	; 0x38
 80016a2:	2b01      	cmp	r3, #1
 80016a4:	d101      	bne.n	80016aa <HAL_UART_Receive_IT+0x38>
 80016a6:	2302      	movs	r3, #2
 80016a8:	e032      	b.n	8001710 <HAL_UART_Receive_IT+0x9e>
 80016aa:	68fb      	ldr	r3, [r7, #12]
 80016ac:	2201      	movs	r2, #1
 80016ae:	f883 2038 	strb.w	r2, [r3, #56]	; 0x38
 80016b2:	68fb      	ldr	r3, [r7, #12]
 80016b4:	68ba      	ldr	r2, [r7, #8]
 80016b6:	629a      	str	r2, [r3, #40]	; 0x28
 80016b8:	68fb      	ldr	r3, [r7, #12]
 80016ba:	88fa      	ldrh	r2, [r7, #6]
 80016bc:	859a      	strh	r2, [r3, #44]	; 0x2c
 80016be:	68fb      	ldr	r3, [r7, #12]
 80016c0:	88fa      	ldrh	r2, [r7, #6]
 80016c2:	85da      	strh	r2, [r3, #46]	; 0x2e
 80016c4:	68fb      	ldr	r3, [r7, #12]
 80016c6:	2200      	movs	r2, #0
 80016c8:	63da      	str	r2, [r3, #60]	; 0x3c
 80016ca:	68fb      	ldr	r3, [r7, #12]
 80016cc:	2222      	movs	r2, #34	; 0x22
 80016ce:	f883 203a 	strb.w	r2, [r3, #58]	; 0x3a
 80016d2:	68fb      	ldr	r3, [r7, #12]
 80016d4:	2200      	movs	r2, #0
 80016d6:	f883 2038 	strb.w	r2, [r3, #56]	; 0x38
 80016da:	68fb      	ldr	r3, [r7, #12]
 80016dc:	681b      	ldr	r3, [r3, #0]
 80016de:	68da      	ldr	r2, [r3, #12]
 80016e0:	68fb      	ldr	r3, [r7, #12]
 80016e2:	681b      	ldr	r3, [r3, #0]
 80016e4:	f442 7280 	orr.w	r2, r2, #256	; 0x100
 80016e8:	60da      	str	r2, [r3, #12]
 80016ea:	68fb      	ldr	r3, [r7, #12]
 80016ec:	681b      	ldr	r3, [r3, #0]
 80016ee:	695a      	ldr	r2, [r3, #20]
 80016f0:	68fb      	ldr	r3, [r7, #12]
 80016f2:	681b      	ldr	r3, [r3, #0]
 80016f4:	f042 0201 	orr.w	r2, r2, #1
 80016f8:	615a      	str	r2, [r3, #20]
 80016fa:	68fb      	ldr	r3, [r7, #12]
 80016fc:	681b      	ldr	r3, [r3, #0]
 80016fe:	68da      	ldr	r2, [r3, #12]
 8001700:	68fb      	ldr	r3, [r7, #12]
 8001702:	681b      	ldr	r3, [r3, #0]
 8001704:	f042 0220 	orr.w	r2, r2, #32
 8001708:	60da      	str	r2, [r3, #12]
 800170a:	2300      	movs	r3, #0
 800170c:	e000      	b.n	8001710 <HAL_UART_Receive_IT+0x9e>
 800170e:	2302      	movs	r3, #2
 8001710:	4618      	mov	r0, r3
 8001712:	3714      	adds	r7, #20
 8001714:	46bd      	mov	sp, r7
 8001716:	bc80      	pop	{r7}
 8001718:	4770      	bx	lr
	...

0800171c <HAL_UART_IRQHandler>:
 800171c:	b580      	push	{r7, lr}
 800171e:	b088      	sub	sp, #32
 8001720:	af00      	add	r7, sp, #0
 8001722:	6078      	str	r0, [r7, #4]
 8001724:	687b      	ldr	r3, [r7, #4]
 8001726:	681b      	ldr	r3, [r3, #0]
 8001728:	681b      	ldr	r3, [r3, #0]
 800172a:	61fb      	str	r3, [r7, #28]
 800172c:	687b      	ldr	r3, [r7, #4]
 800172e:	681b      	ldr	r3, [r3, #0]
 8001730:	68db      	ldr	r3, [r3, #12]
 8001732:	61bb      	str	r3, [r7, #24]
 8001734:	687b      	ldr	r3, [r7, #4]
 8001736:	681b      	ldr	r3, [r3, #0]
 8001738:	695b      	ldr	r3, [r3, #20]
 800173a:	617b      	str	r3, [r7, #20]
 800173c:	2300      	movs	r3, #0
 800173e:	613b      	str	r3, [r7, #16]
 8001740:	2300      	movs	r3, #0
 8001742:	60fb      	str	r3, [r7, #12]
 8001744:	69fb      	ldr	r3, [r7, #28]
 8001746:	f003 030f 	and.w	r3, r3, #15
 800174a:	613b      	str	r3, [r7, #16]
 800174c:	693b      	ldr	r3, [r7, #16]
 800174e:	2b00      	cmp	r3, #0
 8001750:	d10d      	bne.n	800176e <HAL_UART_IRQHandler+0x52>
 8001752:	69fb      	ldr	r3, [r7, #28]
 8001754:	f003 0320 	and.w	r3, r3, #32
 8001758:	2b00      	cmp	r3, #0
 800175a:	d008      	beq.n	800176e <HAL_UART_IRQHandler+0x52>
 800175c:	69bb      	ldr	r3, [r7, #24]
 800175e:	f003 0320 	and.w	r3, r3, #32
 8001762:	2b00      	cmp	r3, #0
 8001764:	d003      	beq.n	800176e <HAL_UART_IRQHandler+0x52>
 8001766:	6878      	ldr	r0, [r7, #4]
 8001768:	f000 f982 	bl	8001a70 <UART_Receive_IT>
 800176c:	e0d0      	b.n	8001910 <HAL_UART_IRQHandler+0x1f4>
 800176e:	693b      	ldr	r3, [r7, #16]
 8001770:	2b00      	cmp	r3, #0
 8001772:	f000 80b0 	beq.w	80018d6 <HAL_UART_IRQHandler+0x1ba>
 8001776:	697b      	ldr	r3, [r7, #20]
 8001778:	f003 0301 	and.w	r3, r3, #1
 800177c:	2b00      	cmp	r3, #0
 800177e:	d105      	bne.n	800178c <HAL_UART_IRQHandler+0x70>
 8001780:	69bb      	ldr	r3, [r7, #24]
 8001782:	f403 7390 	and.w	r3, r3, #288	; 0x120
 8001786:	2b00      	cmp	r3, #0
 8001788:	f000 80a5 	beq.w	80018d6 <HAL_UART_IRQHandler+0x1ba>
 800178c:	69fb      	ldr	r3, [r7, #28]
 800178e:	f003 0301 	and.w	r3, r3, #1
 8001792:	2b00      	cmp	r3, #0
 8001794:	d00a      	beq.n	80017ac <HAL_UART_IRQHandler+0x90>
 8001796:	69bb      	ldr	r3, [r7, #24]
 8001798:	f403 7380 	and.w	r3, r3, #256	; 0x100
 800179c:	2b00      	cmp	r3, #0
 800179e:	d005      	beq.n	80017ac <HAL_UART_IRQHandler+0x90>
 80017a0:	687b      	ldr	r3, [r7, #4]
 80017a2:	6bdb      	ldr	r3, [r3, #60]	; 0x3c
 80017a4:	f043 0201 	orr.w	r2, r3, #1
 80017a8:	687b      	ldr	r3, [r7, #4]
 80017aa:	63da      	str	r2, [r3, #60]	; 0x3c
 80017ac:	69fb      	ldr	r3, [r7, #28]
 80017ae:	f003 0304 	and.w	r3, r3, #4
 80017b2:	2b00      	cmp	r3, #0
 80017b4:	d00a      	beq.n	80017cc <HAL_UART_IRQHandler+0xb0>
 80017b6:	697b      	ldr	r3, [r7, #20]
 80017b8:	f003 0301 	and.w	r3, r3, #1
 80017bc:	2b00      	cmp	r3, #0
 80017be:	d005      	beq.n	80017cc <HAL_UART_IRQHandler+0xb0>
 80017c0:	687b      	ldr	r3, [r7, #4]
 80017c2:	6bdb      	ldr	r3, [r3, #60]	; 0x3c
 80017c4:	f043 0202 	orr.w	r2, r3, #2
 80017c8:	687b      	ldr	r3, [r7, #4]
 80017ca:	63da      	str	r2, [r3, #60]	; 0x3c
 80017cc:	69fb      	ldr	r3, [r7, #28]
 80017ce:	f003 0302 	and.w	r3, r3, #2
 80017d2:	2b00      	cmp	r3, #0
 80017d4:	d00a      	beq.n	80017ec <HAL_UART_IRQHandler+0xd0>
 80017d6:	697b      	ldr	r3, [r7, #20]
 80017d8:	f003 0301 	and.w	r3, r3, #1
 80017dc:	2b00      	cmp	r3, #0
 80017de:	d005      	beq.n	80017ec <HAL_UART_IRQHandler+0xd0>
 80017e0:	687b      	ldr	r3, [r7, #4]
 80017e2:	6bdb      	ldr	r3, [r3, #60]	; 0x3c
 80017e4:	f043 0204 	orr.w	r2, r3, #4
 80017e8:	687b      	ldr	r3, [r7, #4]
 80017ea:	63da      	str	r2, [r3, #60]	; 0x3c
 80017ec:	69fb      	ldr	r3, [r7, #28]
 80017ee:	f003 0308 	and.w	r3, r3, #8
 80017f2:	2b00      	cmp	r3, #0
 80017f4:	d00f      	beq.n	8001816 <HAL_UART_IRQHandler+0xfa>
 80017f6:	69bb      	ldr	r3, [r7, #24]
 80017f8:	f003 0320 	and.w	r3, r3, #32
 80017fc:	2b00      	cmp	r3, #0
 80017fe:	d104      	bne.n	800180a <HAL_UART_IRQHandler+0xee>
 8001800:	697b      	ldr	r3, [r7, #20]
 8001802:	f003 0301 	and.w	r3, r3, #1
 8001806:	2b00      	cmp	r3, #0
 8001808:	d005      	beq.n	8001816 <HAL_UART_IRQHandler+0xfa>
 800180a:	687b      	ldr	r3, [r7, #4]
 800180c:	6bdb      	ldr	r3, [r3, #60]	; 0x3c
 800180e:	f043 0208 	orr.w	r2, r3, #8
 8001812:	687b      	ldr	r3, [r7, #4]
 8001814:	63da      	str	r2, [r3, #60]	; 0x3c
 8001816:	687b      	ldr	r3, [r7, #4]
 8001818:	6bdb      	ldr	r3, [r3, #60]	; 0x3c
 800181a:	2b00      	cmp	r3, #0
 800181c:	d077      	beq.n	800190e <HAL_UART_IRQHandler+0x1f2>
 800181e:	69fb      	ldr	r3, [r7, #28]
 8001820:	f003 0320 	and.w	r3, r3, #32
 8001824:	2b00      	cmp	r3, #0
 8001826:	d007      	beq.n	8001838 <HAL_UART_IRQHandler+0x11c>
 8001828:	69bb      	ldr	r3, [r7, #24]
 800182a:	f003 0320 	and.w	r3, r3, #32
 800182e:	2b00      	cmp	r3, #0
 8001830:	d002      	beq.n	8001838 <HAL_UART_IRQHandler+0x11c>
 8001832:	6878      	ldr	r0, [r7, #4]
 8001834:	f000 f91c 	bl	8001a70 <UART_Receive_IT>
 8001838:	687b      	ldr	r3, [r7, #4]
 800183a:	681b      	ldr	r3, [r3, #0]
 800183c:	695b      	ldr	r3, [r3, #20]
 800183e:	f003 0340 	and.w	r3, r3, #64	; 0x40
 8001842:	2b00      	cmp	r3, #0
 8001844:	bf14      	ite	ne
 8001846:	2301      	movne	r3, #1
 8001848:	2300      	moveq	r3, #0
 800184a:	b2db      	uxtb	r3, r3
 800184c:	60fb      	str	r3, [r7, #12]
 800184e:	687b      	ldr	r3, [r7, #4]
 8001850:	6bdb      	ldr	r3, [r3, #60]	; 0x3c
 8001852:	f003 0308 	and.w	r3, r3, #8
 8001856:	2b00      	cmp	r3, #0
 8001858:	d102      	bne.n	8001860 <HAL_UART_IRQHandler+0x144>
 800185a:	68fb      	ldr	r3, [r7, #12]
 800185c:	2b00      	cmp	r3, #0
 800185e:	d031      	beq.n	80018c4 <HAL_UART_IRQHandler+0x1a8>
 8001860:	6878      	ldr	r0, [r7, #4]
 8001862:	f000 f86d 	bl	8001940 <UART_EndRxTransfer>
 8001866:	687b      	ldr	r3, [r7, #4]
 8001868:	681b      	ldr	r3, [r3, #0]
 800186a:	695b      	ldr	r3, [r3, #20]
 800186c:	f003 0340 	and.w	r3, r3, #64	; 0x40
 8001870:	2b00      	cmp	r3, #0
 8001872:	d023      	beq.n	80018bc <HAL_UART_IRQHandler+0x1a0>
 8001874:	687b      	ldr	r3, [r7, #4]
 8001876:	681b      	ldr	r3, [r3, #0]
 8001878:	695a      	ldr	r2, [r3, #20]
 800187a:	687b      	ldr	r3, [r7, #4]
 800187c:	681b      	ldr	r3, [r3, #0]
 800187e:	f022 0240 	bic.w	r2, r2, #64	; 0x40
 8001882:	615a      	str	r2, [r3, #20]
 8001884:	687b      	ldr	r3, [r7, #4]
 8001886:	6b5b      	ldr	r3, [r3, #52]	; 0x34
 8001888:	2b00      	cmp	r3, #0
 800188a:	d013      	beq.n	80018b4 <HAL_UART_IRQHandler+0x198>
 800188c:	687b      	ldr	r3, [r7, #4]
 800188e:	6b5b      	ldr	r3, [r3, #52]	; 0x34
 8001890:	4a21      	ldr	r2, [pc, #132]	; (8001918 <HAL_UART_IRQHandler+0x1fc>)
 8001892:	635a      	str	r2, [r3, #52]	; 0x34
 8001894:	687b      	ldr	r3, [r7, #4]
 8001896:	6b5b      	ldr	r3, [r3, #52]	; 0x34
 8001898:	4618      	mov	r0, r3
 800189a:	f7ff f845 	bl	8000928 <HAL_DMA_Abort_IT>
 800189e:	4603      	mov	r3, r0
 80018a0:	2b00      	cmp	r3, #0
 80018a2:	d016      	beq.n	80018d2 <HAL_UART_IRQHandler+0x1b6>
 80018a4:	687b      	ldr	r3, [r7, #4]
 80018a6:	6b5b      	ldr	r3, [r3, #52]	; 0x34
 80018a8:	6b5b      	ldr	r3, [r3, #52]	; 0x34
 80018aa:	687a      	ldr	r2, [r7, #4]
 80018ac:	6b52      	ldr	r2, [r2, #52]	; 0x34
 80018ae:	4610      	mov	r0, r2
 80018b0:	4798      	blx	r3
 80018b2:	e00e      	b.n	80018d2 <HAL_UART_IRQHandler+0x1b6>
 80018b4:	6878      	ldr	r0, [r7, #4]
 80018b6:	f000 f83a 	bl	800192e <HAL_UART_ErrorCallback>
 80018ba:	e00a      	b.n	80018d2 <HAL_UART_IRQHandler+0x1b6>
 80018bc:	6878      	ldr	r0, [r7, #4]
 80018be:	f000 f836 	bl	800192e <HAL_UART_ErrorCallback>
 80018c2:	e006      	b.n	80018d2 <HAL_UART_IRQHandler+0x1b6>
 80018c4:	6878      	ldr	r0, [r7, #4]
 80018c6:	f000 f832 	bl	800192e <HAL_UART_ErrorCallback>
 80018ca:	687b      	ldr	r3, [r7, #4]
 80018cc:	2200      	movs	r2, #0
 80018ce:	63da      	str	r2, [r3, #60]	; 0x3c
 80018d0:	e01d      	b.n	800190e <HAL_UART_IRQHandler+0x1f2>
 80018d2:	bf00      	nop
 80018d4:	e01b      	b.n	800190e <HAL_UART_IRQHandler+0x1f2>
 80018d6:	69fb      	ldr	r3, [r7, #28]
 80018d8:	f003 0380 	and.w	r3, r3, #128	; 0x80
 80018dc:	2b00      	cmp	r3, #0
 80018de:	d008      	beq.n	80018f2 <HAL_UART_IRQHandler+0x1d6>
 80018e0:	69bb      	ldr	r3, [r7, #24]
 80018e2:	f003 0380 	and.w	r3, r3, #128	; 0x80
 80018e6:	2b00      	cmp	r3, #0
 80018e8:	d003      	beq.n	80018f2 <HAL_UART_IRQHandler+0x1d6>
 80018ea:	6878      	ldr	r0, [r7, #4]
 80018ec:	f000 f859 	bl	80019a2 <UART_Transmit_IT>
 80018f0:	e00e      	b.n	8001910 <HAL_UART_IRQHandler+0x1f4>
 80018f2:	69fb      	ldr	r3, [r7, #28]
 80018f4:	f003 0340 	and.w	r3, r3, #64	; 0x40
 80018f8:	2b00      	cmp	r3, #0
 80018fa:	d009      	beq.n	8001910 <HAL_UART_IRQHandler+0x1f4>
 80018fc:	69bb      	ldr	r3, [r7, #24]
 80018fe:	f003 0340 	and.w	r3, r3, #64	; 0x40
 8001902:	2b00      	cmp	r3, #0
 8001904:	d004      	beq.n	8001910 <HAL_UART_IRQHandler+0x1f4>
 8001906:	6878      	ldr	r0, [r7, #4]
 8001908:	f000 f89a 	bl	8001a40 <UART_EndTransmit_IT>
 800190c:	e000      	b.n	8001910 <HAL_UART_IRQHandler+0x1f4>
 800190e:	bf00      	nop
 8001910:	3720      	adds	r7, #32
 8001912:	46bd      	mov	sp, r7
 8001914:	bd80      	pop	{r7, pc}
 8001916:	bf00      	nop
 8001918:	0800197b 	.word	0x0800197b

0800191c <HAL_UART_TxCpltCallback>:
 800191c:	b480      	push	{r7}
 800191e:	b083      	sub	sp, #12
 8001920:	af00      	add	r7, sp, #0
 8001922:	6078      	str	r0, [r7, #4]
 8001924:	bf00      	nop
 8001926:	370c      	adds	r7, #12
 8001928:	46bd      	mov	sp, r7
 800192a:	bc80      	pop	{r7}
 800192c:	4770      	bx	lr

0800192e <HAL_UART_ErrorCallback>:
 800192e:	b480      	push	{r7}
 8001930:	b083      	sub	sp, #12
 8001932:	af00      	add	r7, sp, #0
 8001934:	6078      	str	r0, [r7, #4]
 8001936:	bf00      	nop
 8001938:	370c      	adds	r7, #12
 800193a:	46bd      	mov	sp, r7
 800193c:	bc80      	pop	{r7}
 800193e:	4770      	bx	lr

08001940 <UART_EndRxTransfer>:
 8001940:	b480      	push	{r7}
 8001942:	b083      	sub	sp, #12
 8001944:	af00      	add	r7, sp, #0
 8001946:	6078      	str	r0, [r7, #4]
 8001948:	687b      	ldr	r3, [r7, #4]
 800194a:	681b      	ldr	r3, [r3, #0]
 800194c:	68da      	ldr	r2, [r3, #12]
 800194e:	687b      	ldr	r3, [r7, #4]
 8001950:	681b      	ldr	r3, [r3, #0]
 8001952:	f422 7290 	bic.w	r2, r2, #288	; 0x120
 8001956:	60da      	str	r2, [r3, #12]
 8001958:	687b      	ldr	r3, [r7, #4]
 800195a:	681b      	ldr	r3, [r3, #0]
 800195c:	695a      	ldr	r2, [r3, #20]
 800195e:	687b      	ldr	r3, [r7, #4]
 8001960:	681b      	ldr	r3, [r3, #0]
 8001962:	f022 0201 	bic.w	r2, r2, #1
 8001966:	615a      	str	r2, [r3, #20]
 8001968:	687b      	ldr	r3, [r7, #4]
 800196a:	2220      	movs	r2, #32
 800196c:	f883 203a 	strb.w	r2, [r3, #58]	; 0x3a
 8001970:	bf00      	nop
 8001972:	370c      	adds	r7, #12
 8001974:	46bd      	mov	sp, r7
 8001976:	bc80      	pop	{r7}
 8001978:	4770      	bx	lr

0800197a <UART_DMAAbortOnError>:
 800197a:	b580      	push	{r7, lr}
 800197c:	b084      	sub	sp, #16
 800197e:	af00      	add	r7, sp, #0
 8001980:	6078      	str	r0, [r7, #4]
 8001982:	687b      	ldr	r3, [r7, #4]
 8001984:	6a5b      	ldr	r3, [r3, #36]	; 0x24
 8001986:	60fb      	str	r3, [r7, #12]
 8001988:	68fb      	ldr	r3, [r7, #12]
 800198a:	2200      	movs	r2, #0
 800198c:	85da      	strh	r2, [r3, #46]	; 0x2e
 800198e:	68fb      	ldr	r3, [r7, #12]
 8001990:	2200      	movs	r2, #0
 8001992:	84da      	strh	r2, [r3, #38]	; 0x26
 8001994:	68f8      	ldr	r0, [r7, #12]
 8001996:	f7ff ffca 	bl	800192e <HAL_UART_ErrorCallback>
 800199a:	bf00      	nop
 800199c:	3710      	adds	r7, #16
 800199e:	46bd      	mov	sp, r7
 80019a0:	bd80      	pop	{r7, pc}

080019a2 <UART_Transmit_IT>:
 80019a2:	b480      	push	{r7}
 80019a4:	b085      	sub	sp, #20
 80019a6:	af00      	add	r7, sp, #0
 80019a8:	6078      	str	r0, [r7, #4]
 80019aa:	687b      	ldr	r3, [r7, #4]
 80019ac:	f893 3039 	ldrb.w	r3, [r3, #57]	; 0x39
 80019b0:	b2db      	uxtb	r3, r3
 80019b2:	2b21      	cmp	r3, #33	; 0x21
 80019b4:	d13e      	bne.n	8001a34 <UART_Transmit_IT+0x92>
 80019b6:	687b      	ldr	r3, [r7, #4]
 80019b8:	689b      	ldr	r3, [r3, #8]
 80019ba:	f5b3 5f80 	cmp.w	r3, #4096	; 0x1000
 80019be:	d114      	bne.n	80019ea <UART_Transmit_IT+0x48>
 80019c0:	687b      	ldr	r3, [r7, #4]
 80019c2:	691b      	ldr	r3, [r3, #16]
 80019c4:	2b00      	cmp	r3, #0
 80019c6:	d110      	bne.n	80019ea <UART_Transmit_IT+0x48>
 80019c8:	687b      	ldr	r3, [r7, #4]
 80019ca:	6a1b      	ldr	r3, [r3, #32]
 80019cc:	60fb      	str	r3, [r7, #12]
 80019ce:	68fb      	ldr	r3, [r7, #12]
 80019d0:	881b      	ldrh	r3, [r3, #0]
 80019d2:	461a      	mov	r2, r3
 80019d4:	687b      	ldr	r3, [r7, #4]
 80019d6:	681b      	ldr	r3, [r3, #0]
 80019d8:	f3c2 0208 	ubfx	r2, r2, #0, #9
 80019dc:	605a      	str	r2, [r3, #4]
 80019de:	687b      	ldr	r3, [r7, #4]
 80019e0:	6a1b      	ldr	r3, [r3, #32]
 80019e2:	1c9a      	adds	r2, r3, #2
 80019e4:	687b      	ldr	r3, [r7, #4]
 80019e6:	621a      	str	r2, [r3, #32]
 80019e8:	e008      	b.n	80019fc <UART_Transmit_IT+0x5a>
 80019ea:	687b      	ldr	r3, [r7, #4]
 80019ec:	6a1b      	ldr	r3, [r3, #32]
 80019ee:	1c59      	adds	r1, r3, #1
 80019f0:	687a      	ldr	r2, [r7, #4]
 80019f2:	6211      	str	r1, [r2, #32]
 80019f4:	781a      	ldrb	r2, [r3, #0]
 80019f6:	687b      	ldr	r3, [r7, #4]
 80019f8:	681b      	ldr	r3, [r3, #0]
 80019fa:	605a      	str	r2, [r3, #4]
 80019fc:	687b      	ldr	r3, [r7, #4]
 80019fe:	8cdb      	ldrh	r3, [r3, #38]	; 0x26
 8001a00:	b29b      	uxth	r3, r3
 8001a02:	3b01      	subs	r3, #1
 8001a04:	b29b      	uxth	r3, r3
 8001a06:	687a      	ldr	r2, [r7, #4]
 8001a08:	4619      	mov	r1, r3
 8001a0a:	84d1      	strh	r1, [r2, #38]	; 0x26
 8001a0c:	2b00      	cmp	r3, #0
 8001a0e:	d10f      	bne.n	8001a30 <UART_Transmit_IT+0x8e>
 8001a10:	687b      	ldr	r3, [r7, #4]
 8001a12:	681b      	ldr	r3, [r3, #0]
 8001a14:	68da      	ldr	r2, [r3, #12]
 8001a16:	687b      	ldr	r3, [r7, #4]
 8001a18:	681b      	ldr	r3, [r3, #0]
 8001a1a:	f022 0280 	bic.w	r2, r2, #128	; 0x80
 8001a1e:	60da      	str	r2, [r3, #12]
 8001a20:	687b      	ldr	r3, [r7, #4]
 8001a22:	681b      	ldr	r3, [r3, #0]
 8001a24:	68da      	ldr	r2, [r3, #12]
 8001a26:	687b      	ldr	r3, [r7, #4]
 8001a28:	681b      	ldr	r3, [r3, #0]
 8001a2a:	f042 0240 	orr.w	r2, r2, #64	; 0x40
 8001a2e:	60da      	str	r2, [r3, #12]
 8001a30:	2300      	movs	r3, #0
 8001a32:	e000      	b.n	8001a36 <UART_Transmit_IT+0x94>
 8001a34:	2302      	movs	r3, #2
 8001a36:	4618      	mov	r0, r3
 8001a38:	3714      	adds	r7, #20
 8001a3a:	46bd      	mov	sp, r7
 8001a3c:	bc80      	pop	{r7}
 8001a3e:	4770      	bx	lr

08001a40 <UART_EndTransmit_IT>:
 8001a40:	b580      	push	{r7, lr}
 8001a42:	b082      	sub	sp, #8
 8001a44:	af00      	add	r7, sp, #0
 8001a46:	6078      	str	r0, [r7, #4]
 8001a48:	687b      	ldr	r3, [r7, #4]
 8001a4a:	681b      	ldr	r3, [r3, #0]
 8001a4c:	68da      	ldr	r2, [r3, #12]
 8001a4e:	687b      	ldr	r3, [r7, #4]
 8001a50:	681b      	ldr	r3, [r3, #0]
 8001a52:	f022 0240 	bic.w	r2, r2, #64	; 0x40
 8001a56:	60da      	str	r2, [r3, #12]
 8001a58:	687b      	ldr	r3, [r7, #4]
 8001a5a:	2220      	movs	r2, #32
 8001a5c:	f883 2039 	strb.w	r2, [r3, #57]	; 0x39
 8001a60:	6878      	ldr	r0, [r7, #4]
 8001a62:	f7ff ff5b 	bl	800191c <HAL_UART_TxCpltCallback>
 8001a66:	2300      	movs	r3, #0
 8001a68:	4618      	mov	r0, r3
 8001a6a:	3708      	adds	r7, #8
 8001a6c:	46bd      	mov	sp, r7
 8001a6e:	bd80      	pop	{r7, pc}

08001a70 <UART_Receive_IT>:
 8001a70:	b580      	push	{r7, lr}
 8001a72:	b084      	sub	sp, #16
 8001a74:	af00      	add	r7, sp, #0
 8001a76:	6078      	str	r0, [r7, #4]
 8001a78:	687b      	ldr	r3, [r7, #4]
 8001a7a:	f893 303a 	ldrb.w	r3, [r3, #58]	; 0x3a
 8001a7e:	b2db      	uxtb	r3, r3
 8001a80:	2b22      	cmp	r3, #34	; 0x22
 8001a82:	d170      	bne.n	8001b66 <UART_Receive_IT+0xf6>
 8001a84:	687b      	ldr	r3, [r7, #4]
 8001a86:	689b      	ldr	r3, [r3, #8]
 8001a88:	f5b3 5f80 	cmp.w	r3, #4096	; 0x1000
 8001a8c:	d117      	bne.n	8001abe <UART_Receive_IT+0x4e>
 8001a8e:	687b      	ldr	r3, [r7, #4]
 8001a90:	691b      	ldr	r3, [r3, #16]
 8001a92:	2b00      	cmp	r3, #0
 8001a94:	d113      	bne.n	8001abe <UART_Receive_IT+0x4e>
 8001a96:	2300      	movs	r3, #0
 8001a98:	60fb      	str	r3, [r7, #12]
 8001a9a:	687b      	ldr	r3, [r7, #4]
 8001a9c:	6a9b      	ldr	r3, [r3, #40]	; 0x28
 8001a9e:	60bb      	str	r3, [r7, #8]
 8001aa0:	687b      	ldr	r3, [r7, #4]
 8001aa2:	681b      	ldr	r3, [r3, #0]
 8001aa4:	685b      	ldr	r3, [r3, #4]
 8001aa6:	b29b      	uxth	r3, r3
 8001aa8:	f3c3 0308 	ubfx	r3, r3, #0, #9
 8001aac:	b29a      	uxth	r2, r3
 8001aae:	68bb      	ldr	r3, [r7, #8]
 8001ab0:	801a      	strh	r2, [r3, #0]
 8001ab2:	687b      	ldr	r3, [r7, #4]
 8001ab4:	6a9b      	ldr	r3, [r3, #40]	; 0x28
 8001ab6:	1c9a      	adds	r2, r3, #2
 8001ab8:	687b      	ldr	r3, [r7, #4]
 8001aba:	629a      	str	r2, [r3, #40]	; 0x28
 8001abc:	e026      	b.n	8001b0c <UART_Receive_IT+0x9c>
 8001abe:	687b      	ldr	r3, [r7, #4]
 8001ac0:	6a9b      	ldr	r3, [r3, #40]	; 0x28
 8001ac2:	60fb      	str	r3, [r7, #12]
 8001ac4:	2300      	movs	r3, #0
 8001ac6:	60bb      	str	r3, [r7, #8]
 8001ac8:	687b      	ldr	r3, [r7, #4]
 8001aca:	689b      	ldr	r3, [r3, #8]
 8001acc:	f5b3 5f80 	cmp.w	r3, #4096	; 0x1000
 8001ad0:	d007      	beq.n	8001ae2 <UART_Receive_IT+0x72>
 8001ad2:	687b      	ldr	r3, [r7, #4]
 8001ad4:	689b      	ldr	r3, [r3, #8]
 8001ad6:	2b00      	cmp	r3, #0
 8001ad8:	d10a      	bne.n	8001af0 <UART_Receive_IT+0x80>
 8001ada:	687b      	ldr	r3, [r7, #4]
 8001adc:	691b      	ldr	r3, [r3, #16]
 8001ade:	2b00      	cmp	r3, #0
 8001ae0:	d106      	bne.n	8001af0 <UART_Receive_IT+0x80>
 8001ae2:	687b      	ldr	r3, [r7, #4]
 8001ae4:	681b      	ldr	r3, [r3, #0]
 8001ae6:	685b      	ldr	r3, [r3, #4]
 8001ae8:	b2da      	uxtb	r2, r3
 8001aea:	68fb      	ldr	r3, [r7, #12]
 8001aec:	701a      	strb	r2, [r3, #0]
 8001aee:	e008      	b.n	8001b02 <UART_Receive_IT+0x92>
 8001af0:	687b      	ldr	r3, [r7, #4]
 8001af2:	681b      	ldr	r3, [r3, #0]
 8001af4:	685b      	ldr	r3, [r3, #4]
 8001af6:	b2db      	uxtb	r3, r3
 8001af8:	f003 037f 	and.w	r3, r3, #127	; 0x7f
 8001afc:	b2da      	uxtb	r2, r3
 8001afe:	68fb      	ldr	r3, [r7, #12]
 8001b00:	701a      	strb	r2, [r3, #0]
 8001b02:	687b      	ldr	r3, [r7, #4]
 8001b04:	6a9b      	ldr	r3, [r3, #40]	; 0x28
 8001b06:	1c5a      	adds	r2, r3, #1
 8001b08:	687b      	ldr	r3, [r7, #4]
 8001b0a:	629a      	str	r2, [r3, #40]	; 0x28
 8001b0c:	687b      	ldr	r3, [r7, #4]
 8001b0e:	8ddb      	ldrh	r3, [r3, #46]	; 0x2e
 8001b10:	b29b      	uxth	r3, r3
 8001b12:	3b01      	subs	r3, #1
 8001b14:	b29b      	uxth	r3, r3
 8001b16:	687a      	ldr	r2, [r7, #4]
 8001b18:	4619      	mov	r1, r3
 8001b1a:	85d1      	strh	r1, [r2, #46]	; 0x2e
 8001b1c:	2b00      	cmp	r3, #0
 8001b1e:	d120      	bne.n	8001b62 <UART_Receive_IT+0xf2>
 8001b20:	687b      	ldr	r3, [r7, #4]
 8001b22:	681b      	ldr	r3, [r3, #0]
 8001b24:	68da      	ldr	r2, [r3, #12]
 8001b26:	687b      	ldr	r3, [r7, #4]
 8001b28:	681b      	ldr	r3, [r3, #0]
 8001b2a:	f022 0220 	bic.w	r2, r2, #32
 8001b2e:	60da      	str	r2, [r3, #12]
 8001b30:	687b      	ldr	r3, [r7, #4]
 8001b32:	681b      	ldr	r3, [r3, #0]
 8001b34:	68da      	ldr	r2, [r3, #12]
 8001b36:	687b      	ldr	r3, [r7, #4]
 8001b38:	681b      	ldr	r3, [r3, #0]
 8001b3a:	f422 7280 	bic.w	r2, r2, #256	; 0x100
 8001b3e:	60da      	str	r2, [r3, #12]
 8001b40:	687b      	ldr	r3, [r7, #4]
 8001b42:	681b      	ldr	r3, [r3, #0]
 8001b44:	695a      	ldr	r2, [r3, #20]
 8001b46:	687b      	ldr	r3, [r7, #4]
 8001b48:	681b      	ldr	r3, [r3, #0]
 8001b4a:	f022 0201 	bic.w	r2, r2, #1
 8001b4e:	615a      	str	r2, [r3, #20]
 8001b50:	687b      	ldr	r3, [r7, #4]
 8001b52:	2220      	movs	r2, #32
 8001b54:	f883 203a 	strb.w	r2, [r3, #58]	; 0x3a
 8001b58:	6878      	ldr	r0, [r7, #4]
 8001b5a:	f7fe faf7 	bl	800014c <HAL_UART_RxCpltCallback>
 8001b5e:	2300      	movs	r3, #0
 8001b60:	e002      	b.n	8001b68 <UART_Receive_IT+0xf8>
 8001b62:	2300      	movs	r3, #0
 8001b64:	e000      	b.n	8001b68 <UART_Receive_IT+0xf8>
 8001b66:	2302      	movs	r3, #2
 8001b68:	4618      	mov	r0, r3
 8001b6a:	3710      	adds	r7, #16
 8001b6c:	46bd      	mov	sp, r7
 8001b6e:	bd80      	pop	{r7, pc}

08001b70 <UART_SetConfig>:
 8001b70:	b580      	push	{r7, lr}
 8001b72:	b084      	sub	sp, #16
 8001b74:	af00      	add	r7, sp, #0
 8001b76:	6078      	str	r0, [r7, #4]
 8001b78:	687b      	ldr	r3, [r7, #4]
 8001b7a:	681b      	ldr	r3, [r3, #0]
 8001b7c:	691b      	ldr	r3, [r3, #16]
 8001b7e:	f423 5140 	bic.w	r1, r3, #12288	; 0x3000
 8001b82:	687b      	ldr	r3, [r7, #4]
 8001b84:	68da      	ldr	r2, [r3, #12]
 8001b86:	687b      	ldr	r3, [r7, #4]
 8001b88:	681b      	ldr	r3, [r3, #0]
 8001b8a:	430a      	orrs	r2, r1
 8001b8c:	611a      	str	r2, [r3, #16]
 8001b8e:	687b      	ldr	r3, [r7, #4]
 8001b90:	689a      	ldr	r2, [r3, #8]
 8001b92:	687b      	ldr	r3, [r7, #4]
 8001b94:	691b      	ldr	r3, [r3, #16]
 8001b96:	431a      	orrs	r2, r3
 8001b98:	687b      	ldr	r3, [r7, #4]
 8001b9a:	695b      	ldr	r3, [r3, #20]
 8001b9c:	4313      	orrs	r3, r2
 8001b9e:	60bb      	str	r3, [r7, #8]
 8001ba0:	687b      	ldr	r3, [r7, #4]
 8001ba2:	681b      	ldr	r3, [r3, #0]
 8001ba4:	68db      	ldr	r3, [r3, #12]
 8001ba6:	f423 53b0 	bic.w	r3, r3, #5632	; 0x1600
 8001baa:	f023 030c 	bic.w	r3, r3, #12
 8001bae:	687a      	ldr	r2, [r7, #4]
 8001bb0:	6812      	ldr	r2, [r2, #0]
 8001bb2:	68b9      	ldr	r1, [r7, #8]
 8001bb4:	430b      	orrs	r3, r1
 8001bb6:	60d3      	str	r3, [r2, #12]
 8001bb8:	687b      	ldr	r3, [r7, #4]
 8001bba:	681b      	ldr	r3, [r3, #0]
 8001bbc:	695b      	ldr	r3, [r3, #20]
 8001bbe:	f423 7140 	bic.w	r1, r3, #768	; 0x300
 8001bc2:	687b      	ldr	r3, [r7, #4]
 8001bc4:	699a      	ldr	r2, [r3, #24]
 8001bc6:	687b      	ldr	r3, [r7, #4]
 8001bc8:	681b      	ldr	r3, [r3, #0]
 8001bca:	430a      	orrs	r2, r1
 8001bcc:	615a      	str	r2, [r3, #20]
 8001bce:	687b      	ldr	r3, [r7, #4]
 8001bd0:	681b      	ldr	r3, [r3, #0]
 8001bd2:	4a2c      	ldr	r2, [pc, #176]	; (8001c84 <UART_SetConfig+0x114>)
 8001bd4:	4293      	cmp	r3, r2
 8001bd6:	d103      	bne.n	8001be0 <UART_SetConfig+0x70>
 8001bd8:	f7ff fc88 	bl	80014ec <HAL_RCC_GetPCLK2Freq>
 8001bdc:	60f8      	str	r0, [r7, #12]
 8001bde:	e002      	b.n	8001be6 <UART_SetConfig+0x76>
 8001be0:	f7ff fc70 	bl	80014c4 <HAL_RCC_GetPCLK1Freq>
 8001be4:	60f8      	str	r0, [r7, #12]
 8001be6:	68fa      	ldr	r2, [r7, #12]
 8001be8:	4613      	mov	r3, r2
 8001bea:	009b      	lsls	r3, r3, #2
 8001bec:	4413      	add	r3, r2
 8001bee:	009a      	lsls	r2, r3, #2
 8001bf0:	441a      	add	r2, r3
 8001bf2:	687b      	ldr	r3, [r7, #4]
 8001bf4:	685b      	ldr	r3, [r3, #4]
 8001bf6:	009b      	lsls	r3, r3, #2
 8001bf8:	fbb2 f3f3 	udiv	r3, r2, r3
 8001bfc:	4a22      	ldr	r2, [pc, #136]	; (8001c88 <UART_SetConfig+0x118>)
 8001bfe:	fba2 2303 	umull	r2, r3, r2, r3
 8001c02:	095b      	lsrs	r3, r3, #5
 8001c04:	0119      	lsls	r1, r3, #4
 8001c06:	68fa      	ldr	r2, [r7, #12]
 8001c08:	4613      	mov	r3, r2
 8001c0a:	009b      	lsls	r3, r3, #2
 8001c0c:	4413      	add	r3, r2
 8001c0e:	009a      	lsls	r2, r3, #2
 8001c10:	441a      	add	r2, r3
 8001c12:	687b      	ldr	r3, [r7, #4]
 8001c14:	685b      	ldr	r3, [r3, #4]
 8001c16:	009b      	lsls	r3, r3, #2
 8001c18:	fbb2 f2f3 	udiv	r2, r2, r3
 8001c1c:	4b1a      	ldr	r3, [pc, #104]	; (8001c88 <UART_SetConfig+0x118>)
 8001c1e:	fba3 0302 	umull	r0, r3, r3, r2
 8001c22:	095b      	lsrs	r3, r3, #5
 8001c24:	2064      	movs	r0, #100	; 0x64
 8001c26:	fb00 f303 	mul.w	r3, r0, r3
 8001c2a:	1ad3      	subs	r3, r2, r3
 8001c2c:	011b      	lsls	r3, r3, #4
 8001c2e:	3332      	adds	r3, #50	; 0x32
 8001c30:	4a15      	ldr	r2, [pc, #84]	; (8001c88 <UART_SetConfig+0x118>)
 8001c32:	fba2 2303 	umull	r2, r3, r2, r3
 8001c36:	095b      	lsrs	r3, r3, #5
 8001c38:	f003 03f0 	and.w	r3, r3, #240	; 0xf0
 8001c3c:	4419      	add	r1, r3
 8001c3e:	68fa      	ldr	r2, [r7, #12]
 8001c40:	4613      	mov	r3, r2
 8001c42:	009b      	lsls	r3, r3, #2
 8001c44:	4413      	add	r3, r2
 8001c46:	009a      	lsls	r2, r3, #2
 8001c48:	441a      	add	r2, r3
 8001c4a:	687b      	ldr	r3, [r7, #4]
 8001c4c:	685b      	ldr	r3, [r3, #4]
 8001c4e:	009b      	lsls	r3, r3, #2
 8001c50:	fbb2 f2f3 	udiv	r2, r2, r3
 8001c54:	4b0c      	ldr	r3, [pc, #48]	; (8001c88 <UART_SetConfig+0x118>)
 8001c56:	fba3 0302 	umull	r0, r3, r3, r2
 8001c5a:	095b      	lsrs	r3, r3, #5
 8001c5c:	2064      	movs	r0, #100	; 0x64
 8001c5e:	fb00 f303 	mul.w	r3, r0, r3
 8001c62:	1ad3      	subs	r3, r2, r3
 8001c64:	011b      	lsls	r3, r3, #4
 8001c66:	3332      	adds	r3, #50	; 0x32
 8001c68:	4a07      	ldr	r2, [pc, #28]	; (8001c88 <UART_SetConfig+0x118>)
 8001c6a:	fba2 2303 	umull	r2, r3, r2, r3
 8001c6e:	095b      	lsrs	r3, r3, #5
 8001c70:	f003 020f 	and.w	r2, r3, #15
 8001c74:	687b      	ldr	r3, [r7, #4]
 8001c76:	681b      	ldr	r3, [r3, #0]
 8001c78:	440a      	add	r2, r1
 8001c7a:	609a      	str	r2, [r3, #8]
 8001c7c:	bf00      	nop
 8001c7e:	3710      	adds	r7, #16
 8001c80:	46bd      	mov	sp, r7
 8001c82:	bd80      	pop	{r7, pc}
 8001c84:	40013800 	.word	0x40013800
 8001c88:	51eb851f 	.word	0x51eb851f

08001c8c <__libc_init_array>:
 8001c8c:	b570      	push	{r4, r5, r6, lr}
 8001c8e:	2600      	movs	r6, #0
 8001c90:	4d0c      	ldr	r5, [pc, #48]	; (8001cc4 <__libc_init_array+0x38>)
 8001c92:	4c0d      	ldr	r4, [pc, #52]	; (8001cc8 <__libc_init_array+0x3c>)
 8001c94:	1b64      	subs	r4, r4, r5
 8001c96:	10a4      	asrs	r4, r4, #2
 8001c98:	42a6      	cmp	r6, r4
 8001c9a:	d109      	bne.n	8001cb0 <__libc_init_array+0x24>
 8001c9c:	f000 f822 	bl	8001ce4 <_init>
 8001ca0:	2600      	movs	r6, #0
 8001ca2:	4d0a      	ldr	r5, [pc, #40]	; (8001ccc <__libc_init_array+0x40>)
 8001ca4:	4c0a      	ldr	r4, [pc, #40]	; (8001cd0 <__libc_init_array+0x44>)
 8001ca6:	1b64      	subs	r4, r4, r5
 8001ca8:	10a4      	asrs	r4, r4, #2
 8001caa:	42a6      	cmp	r6, r4
 8001cac:	d105      	bne.n	8001cba <__libc_init_array+0x2e>
 8001cae:	bd70      	pop	{r4, r5, r6, pc}
 8001cb0:	f855 3b04 	ldr.w	r3, [r5], #4
 8001cb4:	4798      	blx	r3
 8001cb6:	3601      	adds	r6, #1
 8001cb8:	e7ee      	b.n	8001c98 <__libc_init_array+0xc>
 8001cba:	f855 3b04 	ldr.w	r3, [r5], #4
 8001cbe:	4798      	blx	r3
 8001cc0:	3601      	adds	r6, #1
 8001cc2:	e7f2      	b.n	8001caa <__libc_init_array+0x1e>
 8001cc4:	08001d24 	.word	0x08001d24
 8001cc8:	08001d24 	.word	0x08001d24
 8001ccc:	08001d24 	.word	0x08001d24
 8001cd0:	08001d28 	.word	0x08001d28

08001cd4 <memset>:
 8001cd4:	4603      	mov	r3, r0
 8001cd6:	4402      	add	r2, r0
 8001cd8:	4293      	cmp	r3, r2
 8001cda:	d100      	bne.n	8001cde <memset+0xa>
 8001cdc:	4770      	bx	lr
 8001cde:	f803 1b01 	strb.w	r1, [r3], #1
 8001ce2:	e7f9      	b.n	8001cd8 <memset+0x4>

08001ce4 <_init>:
 8001ce4:	b5f8      	push	{r3, r4, r5, r6, r7, lr}
 8001ce6:	bf00      	nop
 8001ce8:	bcf8      	pop	{r3, r4, r5, r6, r7}
 8001cea:	bc08      	pop	{r3}
 8001cec:	469e      	mov	lr, r3
 8001cee:	4770      	bx	lr

08001cf0 <_fini>:
 8001cf0:	b5f8      	push	{r3, r4, r5, r6, r7, lr}
 8001cf2:	bf00      	nop
 8001cf4:	bcf8      	pop	{r3, r4, r5, r6, r7}
 8001cf6:	bc08      	pop	{r3}
 8001cf8:	469e      	mov	lr, r3
 8001cfa:	4770      	bx	lr
